
ultrasonic_theremin.elf:     file format elf32-littlenios2
ultrasonic_theremin.elf
architecture: nios2:r1, flags 0x00000112:
EXEC_P, HAS_SYMS, D_PAGED
start address 0x00004244

Program Header:
    LOAD off    0x00001000 vaddr 0x00004000 paddr 0x00004000 align 2**12
         filesz 0x00000020 memsz 0x00000020 flags r-x
    LOAD off    0x00001020 vaddr 0x00004020 paddr 0x00004020 align 2**12
         filesz 0x00002c34 memsz 0x00002c34 flags r-x
    LOAD off    0x00003c54 vaddr 0x00006c54 paddr 0x00006f94 align 2**12
         filesz 0x00000340 memsz 0x00000340 flags rw-
    LOAD off    0x000042d4 vaddr 0x000072d4 paddr 0x000072d4 align 2**12
         filesz 0x00000000 memsz 0x00000120 flags rw-

Sections:
Idx Name          Size      VMA       LMA       File off  Algn
  0 .entry        00000020  00004000  00004000  00001000  2**5
                  CONTENTS, ALLOC, LOAD, READONLY, CODE
  1 .exceptions   00000224  00004020  00004020  00001020  2**2
                  CONTENTS, ALLOC, LOAD, READONLY, CODE
  2 .text         000028e4  00004244  00004244  00001244  2**2
                  CONTENTS, ALLOC, LOAD, READONLY, CODE
  3 .rodata       0000012c  00006b28  00006b28  00003b28  2**2
                  CONTENTS, ALLOC, LOAD, READONLY, DATA
  4 .rwdata       00000340  00006c54  00006f94  00003c54  2**2
                  CONTENTS, ALLOC, LOAD, DATA, SMALL_DATA
  5 .bss          00000120  000072d4  000072d4  000042d4  2**2
                  ALLOC, SMALL_DATA
  6 .onchip_ram   00000000  000073f4  000073f4  00003f94  2**0
                  CONTENTS
  7 .comment      00000023  00000000  00000000  00003f94  2**0
                  CONTENTS, READONLY
  8 .debug_aranges 00000610  00000000  00000000  00003fb8  2**3
                  CONTENTS, READONLY, DEBUGGING
  9 .debug_info   00006694  00000000  00000000  000045c8  2**0
                  CONTENTS, READONLY, DEBUGGING
 10 .debug_abbrev 00002838  00000000  00000000  0000ac5c  2**0
                  CONTENTS, READONLY, DEBUGGING
 11 .debug_line   00002a16  00000000  00000000  0000d494  2**0
                  CONTENTS, READONLY, DEBUGGING
 12 .debug_frame  00000b74  00000000  00000000  0000feac  2**2
                  CONTENTS, READONLY, DEBUGGING
 13 .debug_str    00001d89  00000000  00000000  00010a20  2**0
                  CONTENTS, READONLY, DEBUGGING
 14 .debug_loc    00002124  00000000  00000000  000127a9  2**0
                  CONTENTS, READONLY, DEBUGGING
 15 .debug_alt_sim_info 00000030  00000000  00000000  000148d0  2**2
                  CONTENTS, READONLY, DEBUGGING
 16 .debug_ranges 000003e0  00000000  00000000  00014900  2**3
                  CONTENTS, READONLY, DEBUGGING
 17 .thread_model 00000003  00000000  00000000  00016784  2**0
                  CONTENTS, READONLY
 18 .cpu          00000003  00000000  00000000  00016787  2**0
                  CONTENTS, READONLY
 19 .qsys         00000001  00000000  00000000  0001678a  2**0
                  CONTENTS, READONLY
 20 .simulation_enabled 00000001  00000000  00000000  0001678b  2**0
                  CONTENTS, READONLY
 21 .sysid_hash   00000004  00000000  00000000  0001678c  2**0
                  CONTENTS, READONLY
 22 .sysid_base   00000004  00000000  00000000  00016790  2**0
                  CONTENTS, READONLY
 23 .sysid_time   00000004  00000000  00000000  00016794  2**0
                  CONTENTS, READONLY
 24 .stderr_dev   00000009  00000000  00000000  00016798  2**0
                  CONTENTS, READONLY
 25 .stdin_dev    00000009  00000000  00000000  000167a1  2**0
                  CONTENTS, READONLY
 26 .stdout_dev   00000009  00000000  00000000  000167aa  2**0
                  CONTENTS, READONLY
 27 .sopc_system_name 00000004  00000000  00000000  000167b3  2**0
                  CONTENTS, READONLY
 28 .sopcinfo     00061706  00000000  00000000  000167b7  2**0
                  CONTENTS, READONLY
SYMBOL TABLE:
00004000 l    d  .entry	00000000 .entry
00004020 l    d  .exceptions	00000000 .exceptions
00004244 l    d  .text	00000000 .text
00006b28 l    d  .rodata	00000000 .rodata
00006c54 l    d  .rwdata	00000000 .rwdata
000072d4 l    d  .bss	00000000 .bss
000073f4 l    d  .onchip_ram	00000000 .onchip_ram
00000000 l    d  .comment	00000000 .comment
00000000 l    d  .debug_aranges	00000000 .debug_aranges
00000000 l    d  .debug_info	00000000 .debug_info
00000000 l    d  .debug_abbrev	00000000 .debug_abbrev
00000000 l    d  .debug_line	00000000 .debug_line
00000000 l    d  .debug_frame	00000000 .debug_frame
00000000 l    d  .debug_str	00000000 .debug_str
00000000 l    d  .debug_loc	00000000 .debug_loc
00000000 l    d  .debug_alt_sim_info	00000000 .debug_alt_sim_info
00000000 l    d  .debug_ranges	00000000 .debug_ranges
00000000 l    df *ABS*	00000000 ../ultrasonic_theremin_bsp//obj/HAL/src/crt0.o
0000428c l       .text	00000000 alt_after_alt_main
00000000 l    df *ABS*	00000000 alt_irq_handler.c
00000000 l    df *ABS*	00000000 alt_instruction_exception_entry.c
00000000 l    df *ABS*	00000000 ultrasonic_theremin.c
00004290 l     F .text	00000038 init_switch_leds
000042c8 l     F .text	00000034 set_switch_ledA
000042fc l     F .text	00000034 set_switch_ledB
00004408 l     F .text	0000005c set_pixel
00000000 l    df *ABS*	00000000 divsf3.c
00000000 l    df *ABS*	00000000 muldf3.c
00000000 l    df *ABS*	00000000 floatunsidf.c
00000000 l    df *ABS*	00000000 truncdfsf2.c
00000000 l    df *ABS*	00000000 libgcc2.c
00000000 l    df *ABS*	00000000 libgcc2.c
00000000 l    df *ABS*	00000000 alt_load.c
0000531c l     F .text	00000068 alt_load_section
00000000 l    df *ABS*	00000000 alt_main.c
00000000 l    df *ABS*	00000000 alt_sys_init.c
00005484 l     F .text	00000034 alt_dev_reg
00006cb4 l     O .rwdata	0000002c jtag_uart
00000000 l    df *ABS*	00000000 altera_avalon_jtag_uart_fd.c
00000000 l    df *ABS*	00000000 altera_avalon_jtag_uart_read.c
00000000 l    df *ABS*	00000000 altera_avalon_jtag_uart_write.c
00000000 l    df *ABS*	00000000 altera_avalon_timer_sc.c
0000577c l     F .text	00000078 alt_avalon_timer_sc_irq
00000000 l    df *ABS*	00000000 alt_close.c
00005870 l     F .text	0000003c alt_get_errno
00000000 l    df *ABS*	00000000 alt_dcache_flush_all.c
00000000 l    df *ABS*	00000000 alt_dev.c
000059c4 l     F .text	0000002c alt_dev_null_write
00000000 l    df *ABS*	00000000 alt_dev_llist_insert.c
000059f0 l     F .text	0000003c alt_get_errno
00000000 l    df *ABS*	00000000 alt_do_ctors.c
00000000 l    df *ABS*	00000000 alt_do_dtors.c
00000000 l    df *ABS*	00000000 alt_errno.c
00000000 l    df *ABS*	00000000 alt_icache_flush_all.c
00000000 l    df *ABS*	00000000 alt_iic.c
00000000 l    df *ABS*	00000000 alt_iic_isr_register.c
00000000 l    df *ABS*	00000000 alt_io_redirect.c
00005e64 l     F .text	000000c4 alt_open_fd
00000000 l    df *ABS*	00000000 alt_irq_vars.c
00000000 l    df *ABS*	00000000 alt_open.c
00005fa4 l     F .text	0000003c alt_get_errno
00005fe0 l     F .text	000000c4 alt_file_locked
00000000 l    df *ABS*	00000000 alt_release_fd.c
00000000 l    df *ABS*	00000000 alt_tick.c
00000000 l    df *ABS*	00000000 altera_nios2_gen2_irq.c
00000000 l    df *ABS*	00000000 alt_find_dev.c
00000000 l    df *ABS*	00000000 alt_find_file.c
00000000 l    df *ABS*	00000000 alt_get_fd.c
00000000 l    df *ABS*	00000000 alt_icache_flush.c
00000000 l    df *ABS*	00000000 atexit.c
00000000 l    df *ABS*	00000000 exit.c
00000000 l    df *ABS*	00000000 int_errno.c
00000000 l    df *ABS*	00000000 memcmp.c
00000000 l    df *ABS*	00000000 strlen.c
00000000 l    df *ABS*	00000000 __atexit.c
00000000 l    df *ABS*	00000000 __call_atexit.c
00000000 l    df *ABS*	00000000 impure.c
00006e88 l     O .rwdata	000000e0 impure_data
00000000 l    df *ABS*	00000000 alt_exit.c
000072ec g     O .bss	00000004 alt_instruction_exception_handler
00005408 g     F .text	0000007c alt_main
000072f4 g     O .bss	00000100 alt_irq
00006f94 g       *ABS*	00000000 __flash_rwdata_start
00004510 g     F .text	00000440 .hidden __divsf3
00006400 g     F .text	00000024 altera_nios2_gen2_irq_init
00004000 g     F .entry	0000001c __reset
00004020 g       *ABS*	00000000 __flash_exceptions_start
000072f0 g     O .bss	00000004 errno
000072d8 g     O .bss	00000004 alt_argv
0000ef68 g       *ABS*	00000000 _gp
00006d08 g     O .rwdata	00000180 alt_fd_list
00006424 g     F .text	00000090 alt_find_dev
00005f28 g     F .text	0000007c alt_io_redirect
00006b28 g       *ABS*	00000000 __DTOR_END__
000066f0 g     F .text	0000009c alt_exception_cause_generated_bad_addr
000055fc g     F .text	000000ec altera_avalon_jtag_uart_read
00006660 g     F .text	00000090 alt_icache_flush
00006f78 g     O .rwdata	00000004 alt_max_fd
00006f8c g     O .rwdata	00000004 _global_impure_ptr
000073f4 g       *ABS*	00000000 __bss_end
00005d74 g     F .text	000000f0 alt_iic_isr_register
000062f8 g     F .text	00000108 alt_tick
00005068 g     F .text	000000a8 .hidden __floatunsidf
00005d28 g     F .text	0000004c alt_ic_irq_enabled
0000625c g     F .text	0000009c alt_alarm_stop
000072e0 g     O .bss	00000004 alt_irq_active
000040fc g     F .exceptions	000000d4 alt_irq_handler
00006ce0 g     O .rwdata	00000028 alt_dev_null
0000597c g     F .text	00000048 alt_dcache_flush_all
00006f94 g       *ABS*	00000000 __ram_rwdata_end
00006f70 g     O .rwdata	00000008 alt_dev_list
00006c54 g       *ABS*	00000000 __ram_rodata_end
000073f4 g       *ABS*	00000000 end
000041d0 g     F .exceptions	00000074 alt_instruction_exception_entry
00006b28 g       *ABS*	00000000 __CTOR_LIST__
00008000 g       *ABS*	00000000 __alt_stack_pointer
00004330 g     F .text	000000d8 get_distance
000057f4 g     F .text	0000007c alt_avalon_timer_sc_init
000052b8 g     F .text	00000064 .hidden __clzsi2
000056e8 g     F .text	00000094 altera_avalon_jtag_uart_write
00006964 g     F .text	00000190 __call_exitprocs
00004244 g     F .text	0000004c _start
000072e4 g     O .bss	00000004 _alt_tick_rate
000072e8 g     O .bss	00000004 _alt_nticks
000054f0 g     F .text	0000004c alt_sys_init
0000680c g     F .text	00000158 __register_exitproc
00006c54 g       *ABS*	00000000 __ram_rwdata_start
00006b28 g       *ABS*	00000000 __ram_rodata_start
0000553c g     F .text	00000060 altera_avalon_jtag_uart_read_fd
000065bc g     F .text	000000a4 alt_get_fd
000067c0 g     F .text	00000030 memcmp
000073f4 g       *ABS*	00000000 __alt_stack_base
00004950 g     F .text	00000718 .hidden __muldf3
000064b4 g     F .text	00000108 alt_find_file
00005a2c g     F .text	000000a4 alt_dev_llist_insert
000072d4 g       *ABS*	00000000 __bss_start
000044d4 g     F .text	0000003c main
000072dc g     O .bss	00000004 alt_envp
0000559c g     F .text	00000060 altera_avalon_jtag_uart_write_fd
00005110 g     F .text	000001a8 .hidden __truncdfsf2
00006f7c g     O .rwdata	00000004 alt_errno
00006b28 g       *ABS*	00000000 __CTOR_END__
00006b28 g       *ABS*	00000000 __flash_rodata_start
00006b28 g       *ABS*	00000000 __DTOR_LIST__
000054b8 g     F .text	00000038 alt_irq_init
000061f8 g     F .text	00000064 alt_release_fd
00006b28 g     O .rodata	00000100 .hidden __clz_tab
0000678c g     F .text	00000014 atexit
00006f90 g     O .rwdata	00000004 _impure_ptr
000072d4 g     O .bss	00000004 alt_argc
00005b30 g     F .text	00000060 _do_dtors
00004020 g       .exceptions	00000000 alt_irq_entry
00006f68 g     O .rwdata	00000008 alt_fs_list
00004020 g       *ABS*	00000000 __ram_exceptions_start
00005bc4 g     F .text	00000050 alt_ic_isr_register
00006f94 g       *ABS*	00000000 _edata
000073f4 g       *ABS*	00000000 _end
00004244 g       *ABS*	00000000 __ram_exceptions_end
00005c9c g     F .text	0000008c alt_ic_irq_disable
000067a0 g     F .text	00000020 exit
00008000 g       *ABS*	00000000 __alt_data_end
00004020 g     F .exceptions	00000000 alt_exception
00004000 g       *ABS*	00000000 __alt_mem_onchip_ram
00006af4 g     F .text	00000034 _exit
000067f0 g     F .text	0000001c strlen
000060a4 g     F .text	00000154 open
00004464 g     F .text	00000070 set_matrix
00005b90 g     F .text	00000034 alt_icache_flush_all
00006f80 g     O .rwdata	00000004 alt_priority_mask
00005c14 g     F .text	00000088 alt_ic_irq_enable
00006f84 g     O .rwdata	00000008 alt_alarm_list
00005ad0 g     F .text	00000060 _do_ctors
000058ac g     F .text	000000d0 close
00006c54 g     O .rwdata	00000060 happy_smiley
00005384 g     F .text	00000084 alt_load



Disassembly of section .entry:

00004000 <__reset>:
    4000:	00840014 	movui	r2,4096
    4004:	1001483a 	initi	r2
    4008:	10bff804 	addi	r2,r2,-32
    400c:	00bffd16 	blt	zero,r2,4004 <_gp+0xffff509c>
    4010:	00400034 	movhi	at,0
    4014:	08509114 	ori	at,at,16964
    4018:	0800683a 	jmp	at
    401c:	00000000 	call	0 <__alt_mem_onchip_ram-0x4000>

Disassembly of section .exceptions:

00004020 <alt_exception>:
    4020:	deffed04 	addi	sp,sp,-76
    4024:	dfc00015 	stw	ra,0(sp)
    4028:	d8400215 	stw	at,8(sp)
    402c:	d8800315 	stw	r2,12(sp)
    4030:	d8c00415 	stw	r3,16(sp)
    4034:	d9000515 	stw	r4,20(sp)
    4038:	d9400615 	stw	r5,24(sp)
    403c:	d9800715 	stw	r6,28(sp)
    4040:	d9c00815 	stw	r7,32(sp)
    4044:	000b307a 	rdctl	r5,estatus
    4048:	da000915 	stw	r8,36(sp)
    404c:	da400a15 	stw	r9,40(sp)
    4050:	da800b15 	stw	r10,44(sp)
    4054:	dac00c15 	stw	r11,48(sp)
    4058:	db000d15 	stw	r12,52(sp)
    405c:	db400e15 	stw	r13,56(sp)
    4060:	db800f15 	stw	r14,60(sp)
    4064:	dbc01015 	stw	r15,64(sp)
    4068:	d9401115 	stw	r5,68(sp)
    406c:	ebffff04 	addi	r15,ea,-4
    4070:	dbc01215 	stw	r15,72(sp)
    4074:	0009313a 	rdctl	r4,ipending
    4078:	2880004c 	andi	r2,r5,1
    407c:	10000326 	beq	r2,zero,408c <alt_exception+0x6c>
    4080:	20000226 	beq	r4,zero,408c <alt_exception+0x6c>
    4084:	00040fc0 	call	40fc <alt_irq_handler>
    4088:	00000706 	br	40a8 <alt_exception+0x88>
    408c:	df401215 	stw	ea,72(sp)
    4090:	e8bfff17 	ldw	r2,-4(ea)
    4094:	e93fff04 	addi	r4,ea,-4
    4098:	00041d00 	call	41d0 <alt_instruction_exception_entry>
    409c:	1000021e 	bne	r2,zero,40a8 <alt_exception+0x88>
    40a0:	ebffff04 	addi	r15,ea,-4
    40a4:	dbc01215 	stw	r15,72(sp)
    40a8:	d9401117 	ldw	r5,68(sp)
    40ac:	df401217 	ldw	ea,72(sp)
    40b0:	dfc00017 	ldw	ra,0(sp)
    40b4:	2801707a 	wrctl	estatus,r5
    40b8:	d8400217 	ldw	at,8(sp)
    40bc:	d8800317 	ldw	r2,12(sp)
    40c0:	d8c00417 	ldw	r3,16(sp)
    40c4:	d9000517 	ldw	r4,20(sp)
    40c8:	d9400617 	ldw	r5,24(sp)
    40cc:	d9800717 	ldw	r6,28(sp)
    40d0:	d9c00817 	ldw	r7,32(sp)
    40d4:	da000917 	ldw	r8,36(sp)
    40d8:	da400a17 	ldw	r9,40(sp)
    40dc:	da800b17 	ldw	r10,44(sp)
    40e0:	dac00c17 	ldw	r11,48(sp)
    40e4:	db000d17 	ldw	r12,52(sp)
    40e8:	db400e17 	ldw	r13,56(sp)
    40ec:	db800f17 	ldw	r14,60(sp)
    40f0:	dbc01017 	ldw	r15,64(sp)
    40f4:	dec01304 	addi	sp,sp,76
    40f8:	ef80083a 	eret

000040fc <alt_irq_handler>:
    40fc:	defff904 	addi	sp,sp,-28
    4100:	dfc00615 	stw	ra,24(sp)
    4104:	df000515 	stw	fp,20(sp)
    4108:	df000504 	addi	fp,sp,20
    410c:	0001883a 	nop
    4110:	0005313a 	rdctl	r2,ipending
    4114:	e0bffe15 	stw	r2,-8(fp)
    4118:	e0bffe17 	ldw	r2,-8(fp)
    411c:	e0bffb15 	stw	r2,-20(fp)
    4120:	e03ffd15 	stw	zero,-12(fp)
    4124:	00800044 	movi	r2,1
    4128:	e0bffc15 	stw	r2,-16(fp)
    412c:	e0fffb17 	ldw	r3,-20(fp)
    4130:	e0bffc17 	ldw	r2,-16(fp)
    4134:	1884703a 	and	r2,r3,r2
    4138:	10001426 	beq	r2,zero,418c <alt_irq_handler+0x90>
    413c:	00800034 	movhi	r2,0
    4140:	109cbd04 	addi	r2,r2,29428
    4144:	e0fffd17 	ldw	r3,-12(fp)
    4148:	180690fa 	slli	r3,r3,3
    414c:	10c5883a 	add	r2,r2,r3
    4150:	10c00017 	ldw	r3,0(r2)
    4154:	00800034 	movhi	r2,0
    4158:	109cbd04 	addi	r2,r2,29428
    415c:	e13ffd17 	ldw	r4,-12(fp)
    4160:	200890fa 	slli	r4,r4,3
    4164:	1105883a 	add	r2,r2,r4
    4168:	10800104 	addi	r2,r2,4
    416c:	10800017 	ldw	r2,0(r2)
    4170:	1009883a 	mov	r4,r2
    4174:	183ee83a 	callr	r3
    4178:	0001883a 	nop
    417c:	0005313a 	rdctl	r2,ipending
    4180:	e0bfff15 	stw	r2,-4(fp)
    4184:	e0bfff17 	ldw	r2,-4(fp)
    4188:	00000706 	br	41a8 <alt_irq_handler+0xac>
    418c:	e0bffc17 	ldw	r2,-16(fp)
    4190:	1085883a 	add	r2,r2,r2
    4194:	e0bffc15 	stw	r2,-16(fp)
    4198:	e0bffd17 	ldw	r2,-12(fp)
    419c:	10800044 	addi	r2,r2,1
    41a0:	e0bffd15 	stw	r2,-12(fp)
    41a4:	003fe106 	br	412c <_gp+0xffff51c4>
    41a8:	e0bffb15 	stw	r2,-20(fp)
    41ac:	e0bffb17 	ldw	r2,-20(fp)
    41b0:	103fdb1e 	bne	r2,zero,4120 <_gp+0xffff51b8>
    41b4:	0001883a 	nop
    41b8:	0001883a 	nop
    41bc:	e037883a 	mov	sp,fp
    41c0:	dfc00117 	ldw	ra,4(sp)
    41c4:	df000017 	ldw	fp,0(sp)
    41c8:	dec00204 	addi	sp,sp,8
    41cc:	f800283a 	ret

000041d0 <alt_instruction_exception_entry>:
    41d0:	defffb04 	addi	sp,sp,-20
    41d4:	dfc00415 	stw	ra,16(sp)
    41d8:	df000315 	stw	fp,12(sp)
    41dc:	df000304 	addi	fp,sp,12
    41e0:	e13fff15 	stw	r4,-4(fp)
    41e4:	000531fa 	rdctl	r2,exception
    41e8:	e0bffd15 	stw	r2,-12(fp)
    41ec:	e0bffd17 	ldw	r2,-12(fp)
    41f0:	10801f0c 	andi	r2,r2,124
    41f4:	1004d0ba 	srli	r2,r2,2
    41f8:	e0bffd15 	stw	r2,-12(fp)
    41fc:	0005333a 	rdctl	r2,badaddr
    4200:	e0bffe15 	stw	r2,-8(fp)
    4204:	d0a0e117 	ldw	r2,-31868(gp)
    4208:	10000726 	beq	r2,zero,4228 <alt_instruction_exception_entry+0x58>
    420c:	d0a0e117 	ldw	r2,-31868(gp)
    4210:	e0fffd17 	ldw	r3,-12(fp)
    4214:	e1bffe17 	ldw	r6,-8(fp)
    4218:	e17fff17 	ldw	r5,-4(fp)
    421c:	1809883a 	mov	r4,r3
    4220:	103ee83a 	callr	r2
    4224:	00000206 	br	4230 <alt_instruction_exception_entry+0x60>
    4228:	003da03a 	break	0
    422c:	0005883a 	mov	r2,zero
    4230:	e037883a 	mov	sp,fp
    4234:	dfc00117 	ldw	ra,4(sp)
    4238:	df000017 	ldw	fp,0(sp)
    423c:	dec00204 	addi	sp,sp,8
    4240:	f800283a 	ret

Disassembly of section .text:

00004244 <_start>:
    4244:	00820014 	movui	r2,2048
    4248:	10000033 	initd	0(r2)
    424c:	10bff804 	addi	r2,r2,-32
    4250:	00bffd16 	blt	zero,r2,4248 <_gp+0xffff52e0>
    4254:	06c00034 	movhi	sp,0
    4258:	dee00014 	ori	sp,sp,32768
    425c:	06800034 	movhi	gp,0
    4260:	d6bbda14 	ori	gp,gp,61288
    4264:	00800034 	movhi	r2,0
    4268:	109cb514 	ori	r2,r2,29396
    426c:	00c00034 	movhi	r3,0
    4270:	18dcfd14 	ori	r3,r3,29684
    4274:	10c00326 	beq	r2,r3,4284 <_start+0x40>
    4278:	10000015 	stw	zero,0(r2)
    427c:	10800104 	addi	r2,r2,4
    4280:	10fffd36 	bltu	r2,r3,4278 <_gp+0xffff5310>
    4284:	00053840 	call	5384 <alt_load>
    4288:	00054080 	call	5408 <alt_main>

0000428c <alt_after_alt_main>:
    428c:	003fff06 	br	428c <_gp+0xffff5324>

00004290 <init_switch_leds>:
    4290:	deffff04 	addi	sp,sp,-4
    4294:	df000015 	stw	fp,0(sp)
    4298:	d839883a 	mov	fp,sp
    429c:	00ffffc4 	movi	r3,-1
    42a0:	00a45414 	movui	r2,37200
    42a4:	10c00025 	stbio	r3,0(r2)
    42a8:	00ffffc4 	movi	r3,-1
    42ac:	00a45014 	movui	r2,37184
    42b0:	10c00025 	stbio	r3,0(r2)
    42b4:	0001883a 	nop
    42b8:	e037883a 	mov	sp,fp
    42bc:	df000017 	ldw	fp,0(sp)
    42c0:	dec00104 	addi	sp,sp,4
    42c4:	f800283a 	ret

000042c8 <set_switch_ledA>:
    42c8:	defffe04 	addi	sp,sp,-8
    42cc:	df000115 	stw	fp,4(sp)
    42d0:	df000104 	addi	fp,sp,4
    42d4:	2005883a 	mov	r2,r4
    42d8:	e0bfff05 	stb	r2,-4(fp)
    42dc:	e0ffff03 	ldbu	r3,-4(fp)
    42e0:	00a45414 	movui	r2,37200
    42e4:	10c00025 	stbio	r3,0(r2)
    42e8:	0001883a 	nop
    42ec:	e037883a 	mov	sp,fp
    42f0:	df000017 	ldw	fp,0(sp)
    42f4:	dec00104 	addi	sp,sp,4
    42f8:	f800283a 	ret

000042fc <set_switch_ledB>:
    42fc:	defffe04 	addi	sp,sp,-8
    4300:	df000115 	stw	fp,4(sp)
    4304:	df000104 	addi	fp,sp,4
    4308:	2005883a 	mov	r2,r4
    430c:	e0bfff05 	stb	r2,-4(fp)
    4310:	e0ffff03 	ldbu	r3,-4(fp)
    4314:	00a45014 	movui	r2,37184
    4318:	10c00025 	stbio	r3,0(r2)
    431c:	0001883a 	nop
    4320:	e037883a 	mov	sp,fp
    4324:	df000017 	ldw	fp,0(sp)
    4328:	dec00104 	addi	sp,sp,4
    432c:	f800283a 	ret

00004330 <get_distance>:
    4330:	defffa04 	addi	sp,sp,-24
    4334:	dfc00515 	stw	ra,20(sp)
    4338:	df000415 	stw	fp,16(sp)
    433c:	df000404 	addi	fp,sp,16
    4340:	00a45c14 	movui	r2,37232
    4344:	10800037 	ldwio	r2,0(r2)
    4348:	e0bffc15 	stw	r2,-16(fp)
    434c:	e0bffc17 	ldw	r2,-16(fp)
    4350:	10800524 	muli	r2,r2,20
    4354:	1009883a 	mov	r4,r2
    4358:	00050680 	call	5068 <__floatunsidf>
    435c:	1011883a 	mov	r8,r2
    4360:	1813883a 	mov	r9,r3
    4364:	01b4bcb4 	movhi	r6,54002
    4368:	31aa7f04 	addi	r6,r6,-22020
    436c:	01cfd434 	movhi	r7,16208
    4370:	39d89344 	addi	r7,r7,25165
    4374:	4009883a 	mov	r4,r8
    4378:	480b883a 	mov	r5,r9
    437c:	00049500 	call	4950 <__muldf3>
    4380:	1009883a 	mov	r4,r2
    4384:	180b883a 	mov	r5,r3
    4388:	2005883a 	mov	r2,r4
    438c:	2807883a 	mov	r3,r5
    4390:	1009883a 	mov	r4,r2
    4394:	180b883a 	mov	r5,r3
    4398:	00051100 	call	5110 <__truncdfsf2>
    439c:	1007883a 	mov	r3,r2
    43a0:	e0fffd15 	stw	r3,-12(fp)
    43a4:	01509a34 	movhi	r5,17000
    43a8:	e13ffd17 	ldw	r4,-12(fp)
    43ac:	00045100 	call	4510 <__divsf3>
    43b0:	1007883a 	mov	r3,r2
    43b4:	e0fffe15 	stw	r3,-8(fp)
    43b8:	e0bffc17 	ldw	r2,-16(fp)
    43bc:	1004d23a 	srli	r2,r2,8
    43c0:	e0bfff05 	stb	r2,-4(fp)
    43c4:	e0bffc17 	ldw	r2,-16(fp)
    43c8:	1004d43a 	srli	r2,r2,16
    43cc:	e0bfff45 	stb	r2,-3(fp)
    43d0:	e0bfff43 	ldbu	r2,-3(fp)
    43d4:	1009883a 	mov	r4,r2
    43d8:	00042c80 	call	42c8 <set_switch_ledA>
    43dc:	e0bfff03 	ldbu	r2,-4(fp)
    43e0:	1009883a 	mov	r4,r2
    43e4:	00042fc0 	call	42fc <set_switch_ledB>
    43e8:	e0bffe17 	ldw	r2,-8(fp)
    43ec:	1007883a 	mov	r3,r2
    43f0:	1805883a 	mov	r2,r3
    43f4:	e037883a 	mov	sp,fp
    43f8:	dfc00117 	ldw	ra,4(sp)
    43fc:	df000017 	ldw	fp,0(sp)
    4400:	dec00204 	addi	sp,sp,8
    4404:	f800283a 	ret

00004408 <set_pixel>:
    4408:	defffc04 	addi	sp,sp,-16
    440c:	df000315 	stw	fp,12(sp)
    4410:	df000304 	addi	fp,sp,12
    4414:	2807883a 	mov	r3,r5
    4418:	3005883a 	mov	r2,r6
    441c:	e13ffd05 	stb	r4,-12(fp)
    4420:	e0fffe05 	stb	r3,-8(fp)
    4424:	e0bfff05 	stb	r2,-4(fp)
    4428:	e0bffe03 	ldbu	r2,-8(fp)
    442c:	10c00324 	muli	r3,r2,12
    4430:	e0bffd03 	ldbu	r2,-12(fp)
    4434:	1885883a 	add	r2,r3,r2
    4438:	1085883a 	add	r2,r2,r2
    443c:	1007883a 	mov	r3,r2
    4440:	00a40014 	movui	r2,36864
    4444:	1885883a 	add	r2,r3,r2
    4448:	e0ffff03 	ldbu	r3,-4(fp)
    444c:	10c0002d 	sthio	r3,0(r2)
    4450:	0001883a 	nop
    4454:	e037883a 	mov	sp,fp
    4458:	df000017 	ldw	fp,0(sp)
    445c:	dec00104 	addi	sp,sp,4
    4460:	f800283a 	ret

00004464 <set_matrix>:
    4464:	defffd04 	addi	sp,sp,-12
    4468:	df000215 	stw	fp,8(sp)
    446c:	df000204 	addi	fp,sp,8
    4470:	e13fff15 	stw	r4,-4(fp)
    4474:	e03ffe05 	stb	zero,-8(fp)
    4478:	00000e06 	br	44b4 <set_matrix+0x50>
    447c:	e0bffe03 	ldbu	r2,-8(fp)
    4480:	1085883a 	add	r2,r2,r2
    4484:	1007883a 	mov	r3,r2
    4488:	00a40014 	movui	r2,36864
    448c:	1885883a 	add	r2,r3,r2
    4490:	e0fffe03 	ldbu	r3,-8(fp)
    4494:	e13fff17 	ldw	r4,-4(fp)
    4498:	20c7883a 	add	r3,r4,r3
    449c:	18c00003 	ldbu	r3,0(r3)
    44a0:	18c03fcc 	andi	r3,r3,255
    44a4:	10c0002d 	sthio	r3,0(r2)
    44a8:	e0bffe03 	ldbu	r2,-8(fp)
    44ac:	10800044 	addi	r2,r2,1
    44b0:	e0bffe05 	stb	r2,-8(fp)
    44b4:	e0bffe03 	ldbu	r2,-8(fp)
    44b8:	10801830 	cmpltui	r2,r2,96
    44bc:	103fef1e 	bne	r2,zero,447c <_gp+0xffff5514>
    44c0:	0001883a 	nop
    44c4:	e037883a 	mov	sp,fp
    44c8:	df000017 	ldw	fp,0(sp)
    44cc:	dec00104 	addi	sp,sp,4
    44d0:	f800283a 	ret

000044d4 <main>:
    44d4:	defffd04 	addi	sp,sp,-12
    44d8:	dfc00215 	stw	ra,8(sp)
    44dc:	df000115 	stw	fp,4(sp)
    44e0:	df000104 	addi	fp,sp,4
    44e4:	00042900 	call	4290 <init_switch_leds>
    44e8:	01000034 	movhi	r4,0
    44ec:	211b1504 	addi	r4,r4,27732
    44f0:	00044640 	call	4464 <set_matrix>
    44f4:	018001c4 	movi	r6,7
    44f8:	01400104 	movi	r5,4
    44fc:	01000144 	movi	r4,5
    4500:	00044080 	call	4408 <set_pixel>
    4504:	00043300 	call	4330 <get_distance>
    4508:	e0bfff15 	stw	r2,-4(fp)
    450c:	003ffd06 	br	4504 <_gp+0xffff559c>

00004510 <__divsf3>:
    4510:	defff504 	addi	sp,sp,-44
    4514:	200cd5fa 	srli	r6,r4,23
    4518:	dcc00415 	stw	r19,16(sp)
    451c:	2026d7fa 	srli	r19,r4,31
    4520:	00c02034 	movhi	r3,128
    4524:	dd800715 	stw	r22,28(sp)
    4528:	dd000515 	stw	r20,20(sp)
    452c:	dc800315 	stw	r18,12(sp)
    4530:	18ffffc4 	addi	r3,r3,-1
    4534:	dfc00a15 	stw	ra,40(sp)
    4538:	df000915 	stw	fp,36(sp)
    453c:	ddc00815 	stw	r23,32(sp)
    4540:	dd400615 	stw	r21,24(sp)
    4544:	dc400215 	stw	r17,8(sp)
    4548:	dc000115 	stw	r16,4(sp)
    454c:	35003fcc 	andi	r20,r6,255
    4550:	1924703a 	and	r18,r3,r4
    4554:	9d803fcc 	andi	r22,r19,255
    4558:	a0005226 	beq	r20,zero,46a4 <__divsf3+0x194>
    455c:	00803fc4 	movi	r2,255
    4560:	a0802e26 	beq	r20,r2,461c <__divsf3+0x10c>
    4564:	91002034 	orhi	r4,r18,128
    4568:	202490fa 	slli	r18,r4,3
    456c:	a53fe044 	addi	r20,r20,-127
    4570:	0021883a 	mov	r16,zero
    4574:	002f883a 	mov	r23,zero
    4578:	280cd5fa 	srli	r6,r5,23
    457c:	282ad7fa 	srli	r21,r5,31
    4580:	00c02034 	movhi	r3,128
    4584:	18ffffc4 	addi	r3,r3,-1
    4588:	31803fcc 	andi	r6,r6,255
    458c:	1962703a 	and	r17,r3,r5
    4590:	af003fcc 	andi	fp,r21,255
    4594:	30004a26 	beq	r6,zero,46c0 <__divsf3+0x1b0>
    4598:	00803fc4 	movi	r2,255
    459c:	30804526 	beq	r6,r2,46b4 <__divsf3+0x1a4>
    45a0:	89402034 	orhi	r5,r17,128
    45a4:	282290fa 	slli	r17,r5,3
    45a8:	31bfe044 	addi	r6,r6,-127
    45ac:	000b883a 	mov	r5,zero
    45b0:	2c20b03a 	or	r16,r5,r16
    45b4:	802090ba 	slli	r16,r16,2
    45b8:	00800034 	movhi	r2,0
    45bc:	10917704 	addi	r2,r2,17884
    45c0:	80a1883a 	add	r16,r16,r2
    45c4:	81000017 	ldw	r4,0(r16)
    45c8:	9d46f03a 	xor	r3,r19,r21
    45cc:	180f883a 	mov	r7,r3
    45d0:	18803fcc 	andi	r2,r3,255
    45d4:	a18dc83a 	sub	r6,r20,r6
    45d8:	2000683a 	jmp	r4
    45dc:	000047c0 	call	47c <__alt_mem_onchip_ram-0x3b84>
    45e0:	00004644 	movi	zero,281
    45e4:	000047b4 	movhi	zero,286
    45e8:	00004630 	cmpltui	zero,zero,280
    45ec:	000047b4 	movhi	zero,286
    45f0:	0000478c 	andi	zero,zero,286
    45f4:	000047b4 	movhi	zero,286
    45f8:	00004630 	cmpltui	zero,zero,280
    45fc:	00004644 	movi	zero,281
    4600:	00004644 	movi	zero,281
    4604:	0000478c 	andi	zero,zero,286
    4608:	00004630 	cmpltui	zero,zero,280
    460c:	000048a0 	cmpeqi	zero,zero,290
    4610:	000048a0 	cmpeqi	zero,zero,290
    4614:	000048a0 	cmpeqi	zero,zero,290
    4618:	00004854 	movui	zero,289
    461c:	9000581e 	bne	r18,zero,4780 <__divsf3+0x270>
    4620:	04000204 	movi	r16,8
    4624:	05c00084 	movi	r23,2
    4628:	003fd306 	br	4578 <_gp+0xffff5610>
    462c:	0023883a 	mov	r17,zero
    4630:	e02d883a 	mov	r22,fp
    4634:	282f883a 	mov	r23,r5
    4638:	00800084 	movi	r2,2
    463c:	b8808f1e 	bne	r23,r2,487c <__divsf3+0x36c>
    4640:	b005883a 	mov	r2,r22
    4644:	11c0004c 	andi	r7,r2,1
    4648:	013fffc4 	movi	r4,-1
    464c:	000d883a 	mov	r6,zero
    4650:	21003fcc 	andi	r4,r4,255
    4654:	200895fa 	slli	r4,r4,23
    4658:	38803fcc 	andi	r2,r7,255
    465c:	00c02034 	movhi	r3,128
    4660:	100497fa 	slli	r2,r2,31
    4664:	18ffffc4 	addi	r3,r3,-1
    4668:	30c6703a 	and	r3,r6,r3
    466c:	1906b03a 	or	r3,r3,r4
    4670:	1884b03a 	or	r2,r3,r2
    4674:	dfc00a17 	ldw	ra,40(sp)
    4678:	df000917 	ldw	fp,36(sp)
    467c:	ddc00817 	ldw	r23,32(sp)
    4680:	dd800717 	ldw	r22,28(sp)
    4684:	dd400617 	ldw	r21,24(sp)
    4688:	dd000517 	ldw	r20,20(sp)
    468c:	dcc00417 	ldw	r19,16(sp)
    4690:	dc800317 	ldw	r18,12(sp)
    4694:	dc400217 	ldw	r17,8(sp)
    4698:	dc000117 	ldw	r16,4(sp)
    469c:	dec00b04 	addi	sp,sp,44
    46a0:	f800283a 	ret
    46a4:	90002b1e 	bne	r18,zero,4754 <__divsf3+0x244>
    46a8:	04000104 	movi	r16,4
    46ac:	05c00044 	movi	r23,1
    46b0:	003fb106 	br	4578 <_gp+0xffff5610>
    46b4:	8800251e 	bne	r17,zero,474c <__divsf3+0x23c>
    46b8:	01400084 	movi	r5,2
    46bc:	00000206 	br	46c8 <__divsf3+0x1b8>
    46c0:	88001a1e 	bne	r17,zero,472c <__divsf3+0x21c>
    46c4:	01400044 	movi	r5,1
    46c8:	8160b03a 	or	r16,r16,r5
    46cc:	802090ba 	slli	r16,r16,2
    46d0:	00c00034 	movhi	r3,0
    46d4:	18d1bb04 	addi	r3,r3,18156
    46d8:	80e1883a 	add	r16,r16,r3
    46dc:	80c00017 	ldw	r3,0(r16)
    46e0:	9d44f03a 	xor	r2,r19,r21
    46e4:	a18dc83a 	sub	r6,r20,r6
    46e8:	1800683a 	jmp	r3
    46ec:	00004644 	movi	zero,281
    46f0:	00004644 	movi	zero,281
    46f4:	00004890 	cmplti	zero,zero,290
    46f8:	0000462c 	andhi	zero,zero,280
    46fc:	00004890 	cmplti	zero,zero,290
    4700:	0000478c 	andi	zero,zero,286
    4704:	00004890 	cmplti	zero,zero,290
    4708:	0000462c 	andhi	zero,zero,280
    470c:	00004644 	movi	zero,281
    4710:	00004644 	movi	zero,281
    4714:	0000478c 	andi	zero,zero,286
    4718:	0000462c 	andhi	zero,zero,280
    471c:	000048a0 	cmpeqi	zero,zero,290
    4720:	000048a0 	cmpeqi	zero,zero,290
    4724:	000048a0 	cmpeqi	zero,zero,290
    4728:	000048b8 	rdprs	zero,zero,290
    472c:	8809883a 	mov	r4,r17
    4730:	00052b80 	call	52b8 <__clzsi2>
    4734:	10fffec4 	addi	r3,r2,-5
    4738:	10801d84 	addi	r2,r2,118
    473c:	88e2983a 	sll	r17,r17,r3
    4740:	008dc83a 	sub	r6,zero,r2
    4744:	000b883a 	mov	r5,zero
    4748:	003f9906 	br	45b0 <_gp+0xffff5648>
    474c:	014000c4 	movi	r5,3
    4750:	003f9706 	br	45b0 <_gp+0xffff5648>
    4754:	9009883a 	mov	r4,r18
    4758:	d9400015 	stw	r5,0(sp)
    475c:	00052b80 	call	52b8 <__clzsi2>
    4760:	10fffec4 	addi	r3,r2,-5
    4764:	11801d84 	addi	r6,r2,118
    4768:	90e4983a 	sll	r18,r18,r3
    476c:	01a9c83a 	sub	r20,zero,r6
    4770:	0021883a 	mov	r16,zero
    4774:	002f883a 	mov	r23,zero
    4778:	d9400017 	ldw	r5,0(sp)
    477c:	003f7e06 	br	4578 <_gp+0xffff5610>
    4780:	04000304 	movi	r16,12
    4784:	05c000c4 	movi	r23,3
    4788:	003f7b06 	br	4578 <_gp+0xffff5610>
    478c:	01802034 	movhi	r6,128
    4790:	000f883a 	mov	r7,zero
    4794:	31bfffc4 	addi	r6,r6,-1
    4798:	013fffc4 	movi	r4,-1
    479c:	003fac06 	br	4650 <_gp+0xffff56e8>
    47a0:	01400044 	movi	r5,1
    47a4:	2909c83a 	sub	r4,r5,r4
    47a8:	00c006c4 	movi	r3,27
    47ac:	19004b0e 	bge	r3,r4,48dc <__divsf3+0x3cc>
    47b0:	114e703a 	and	r7,r2,r5
    47b4:	0009883a 	mov	r4,zero
    47b8:	000d883a 	mov	r6,zero
    47bc:	003fa406 	br	4650 <_gp+0xffff56e8>
    47c0:	9006917a 	slli	r3,r18,5
    47c4:	8822917a 	slli	r17,r17,5
    47c8:	1c40372e 	bgeu	r3,r17,48a8 <__divsf3+0x398>
    47cc:	31bfffc4 	addi	r6,r6,-1
    47d0:	010006c4 	movi	r4,27
    47d4:	000b883a 	mov	r5,zero
    47d8:	180f883a 	mov	r7,r3
    47dc:	294b883a 	add	r5,r5,r5
    47e0:	18c7883a 	add	r3,r3,r3
    47e4:	38000116 	blt	r7,zero,47ec <__divsf3+0x2dc>
    47e8:	1c400236 	bltu	r3,r17,47f4 <__divsf3+0x2e4>
    47ec:	1c47c83a 	sub	r3,r3,r17
    47f0:	29400054 	ori	r5,r5,1
    47f4:	213fffc4 	addi	r4,r4,-1
    47f8:	203ff71e 	bne	r4,zero,47d8 <_gp+0xffff5870>
    47fc:	1806c03a 	cmpne	r3,r3,zero
    4800:	1962b03a 	or	r17,r3,r5
    4804:	31001fc4 	addi	r4,r6,127
    4808:	013fe50e 	bge	zero,r4,47a0 <_gp+0xffff5838>
    480c:	88c001cc 	andi	r3,r17,7
    4810:	18000426 	beq	r3,zero,4824 <__divsf3+0x314>
    4814:	88c003cc 	andi	r3,r17,15
    4818:	01400104 	movi	r5,4
    481c:	19400126 	beq	r3,r5,4824 <__divsf3+0x314>
    4820:	8963883a 	add	r17,r17,r5
    4824:	88c2002c 	andhi	r3,r17,2048
    4828:	18000426 	beq	r3,zero,483c <__divsf3+0x32c>
    482c:	00fe0034 	movhi	r3,63488
    4830:	18ffffc4 	addi	r3,r3,-1
    4834:	31002004 	addi	r4,r6,128
    4838:	88e2703a 	and	r17,r17,r3
    483c:	00c03f84 	movi	r3,254
    4840:	193f8016 	blt	r3,r4,4644 <_gp+0xffff56dc>
    4844:	880c91ba 	slli	r6,r17,6
    4848:	11c0004c 	andi	r7,r2,1
    484c:	300cd27a 	srli	r6,r6,9
    4850:	003f7f06 	br	4650 <_gp+0xffff56e8>
    4854:	9080102c 	andhi	r2,r18,64
    4858:	10000226 	beq	r2,zero,4864 <__divsf3+0x354>
    485c:	8880102c 	andhi	r2,r17,64
    4860:	10001826 	beq	r2,zero,48c4 <__divsf3+0x3b4>
    4864:	00802034 	movhi	r2,128
    4868:	91801034 	orhi	r6,r18,64
    486c:	10bfffc4 	addi	r2,r2,-1
    4870:	980f883a 	mov	r7,r19
    4874:	308c703a 	and	r6,r6,r2
    4878:	003fc706 	br	4798 <_gp+0xffff5830>
    487c:	008000c4 	movi	r2,3
    4880:	b8802d26 	beq	r23,r2,4938 <__divsf3+0x428>
    4884:	00c00044 	movi	r3,1
    4888:	b005883a 	mov	r2,r22
    488c:	b8ffdd1e 	bne	r23,r3,4804 <_gp+0xffff589c>
    4890:	11c0004c 	andi	r7,r2,1
    4894:	0009883a 	mov	r4,zero
    4898:	000d883a 	mov	r6,zero
    489c:	003f6c06 	br	4650 <_gp+0xffff56e8>
    48a0:	9023883a 	mov	r17,r18
    48a4:	003f6406 	br	4638 <_gp+0xffff56d0>
    48a8:	1c47c83a 	sub	r3,r3,r17
    48ac:	01000684 	movi	r4,26
    48b0:	01400044 	movi	r5,1
    48b4:	003fc806 	br	47d8 <_gp+0xffff5870>
    48b8:	9080102c 	andhi	r2,r18,64
    48bc:	103fe926 	beq	r2,zero,4864 <_gp+0xffff58fc>
    48c0:	0023883a 	mov	r17,zero
    48c4:	00802034 	movhi	r2,128
    48c8:	89801034 	orhi	r6,r17,64
    48cc:	10bfffc4 	addi	r2,r2,-1
    48d0:	a80f883a 	mov	r7,r21
    48d4:	308c703a 	and	r6,r6,r2
    48d8:	003faf06 	br	4798 <_gp+0xffff5830>
    48dc:	01c00804 	movi	r7,32
    48e0:	390fc83a 	sub	r7,r7,r4
    48e4:	89ce983a 	sll	r7,r17,r7
    48e8:	890ad83a 	srl	r5,r17,r4
    48ec:	380ec03a 	cmpne	r7,r7,zero
    48f0:	29cab03a 	or	r5,r5,r7
    48f4:	28c001cc 	andi	r3,r5,7
    48f8:	18000426 	beq	r3,zero,490c <__divsf3+0x3fc>
    48fc:	28c003cc 	andi	r3,r5,15
    4900:	01000104 	movi	r4,4
    4904:	19000126 	beq	r3,r4,490c <__divsf3+0x3fc>
    4908:	290b883a 	add	r5,r5,r4
    490c:	28c1002c 	andhi	r3,r5,1024
    4910:	18000426 	beq	r3,zero,4924 <__divsf3+0x414>
    4914:	11c0004c 	andi	r7,r2,1
    4918:	01000044 	movi	r4,1
    491c:	000d883a 	mov	r6,zero
    4920:	003f4b06 	br	4650 <_gp+0xffff56e8>
    4924:	280a91ba 	slli	r5,r5,6
    4928:	11c0004c 	andi	r7,r2,1
    492c:	0009883a 	mov	r4,zero
    4930:	280cd27a 	srli	r6,r5,9
    4934:	003f4606 	br	4650 <_gp+0xffff56e8>
    4938:	00802034 	movhi	r2,128
    493c:	89801034 	orhi	r6,r17,64
    4940:	10bfffc4 	addi	r2,r2,-1
    4944:	b00f883a 	mov	r7,r22
    4948:	308c703a 	and	r6,r6,r2
    494c:	003f9206 	br	4798 <_gp+0xffff5830>

00004950 <__muldf3>:
    4950:	defff304 	addi	sp,sp,-52
    4954:	2804d53a 	srli	r2,r5,20
    4958:	dd800915 	stw	r22,36(sp)
    495c:	282cd7fa 	srli	r22,r5,31
    4960:	dc000315 	stw	r16,12(sp)
    4964:	04000434 	movhi	r16,16
    4968:	dd400815 	stw	r21,32(sp)
    496c:	dc800515 	stw	r18,20(sp)
    4970:	843fffc4 	addi	r16,r16,-1
    4974:	dfc00c15 	stw	ra,48(sp)
    4978:	df000b15 	stw	fp,44(sp)
    497c:	ddc00a15 	stw	r23,40(sp)
    4980:	dd000715 	stw	r20,28(sp)
    4984:	dcc00615 	stw	r19,24(sp)
    4988:	dc400415 	stw	r17,16(sp)
    498c:	1481ffcc 	andi	r18,r2,2047
    4990:	2c20703a 	and	r16,r5,r16
    4994:	b02b883a 	mov	r21,r22
    4998:	b2403fcc 	andi	r9,r22,255
    499c:	90006026 	beq	r18,zero,4b20 <__muldf3+0x1d0>
    49a0:	0081ffc4 	movi	r2,2047
    49a4:	2029883a 	mov	r20,r4
    49a8:	90803626 	beq	r18,r2,4a84 <__muldf3+0x134>
    49ac:	80800434 	orhi	r2,r16,16
    49b0:	100490fa 	slli	r2,r2,3
    49b4:	2020d77a 	srli	r16,r4,29
    49b8:	202890fa 	slli	r20,r4,3
    49bc:	94bf0044 	addi	r18,r18,-1023
    49c0:	80a0b03a 	or	r16,r16,r2
    49c4:	0027883a 	mov	r19,zero
    49c8:	0039883a 	mov	fp,zero
    49cc:	3804d53a 	srli	r2,r7,20
    49d0:	382ed7fa 	srli	r23,r7,31
    49d4:	04400434 	movhi	r17,16
    49d8:	8c7fffc4 	addi	r17,r17,-1
    49dc:	1081ffcc 	andi	r2,r2,2047
    49e0:	3011883a 	mov	r8,r6
    49e4:	3c62703a 	and	r17,r7,r17
    49e8:	ba803fcc 	andi	r10,r23,255
    49ec:	10006d26 	beq	r2,zero,4ba4 <__muldf3+0x254>
    49f0:	00c1ffc4 	movi	r3,2047
    49f4:	10c06526 	beq	r2,r3,4b8c <__muldf3+0x23c>
    49f8:	88c00434 	orhi	r3,r17,16
    49fc:	180690fa 	slli	r3,r3,3
    4a00:	3022d77a 	srli	r17,r6,29
    4a04:	301090fa 	slli	r8,r6,3
    4a08:	10bf0044 	addi	r2,r2,-1023
    4a0c:	88e2b03a 	or	r17,r17,r3
    4a10:	000b883a 	mov	r5,zero
    4a14:	9085883a 	add	r2,r18,r2
    4a18:	2cc8b03a 	or	r4,r5,r19
    4a1c:	00c003c4 	movi	r3,15
    4a20:	bdacf03a 	xor	r22,r23,r22
    4a24:	12c00044 	addi	r11,r2,1
    4a28:	19009936 	bltu	r3,r4,4c90 <__muldf3+0x340>
    4a2c:	200890ba 	slli	r4,r4,2
    4a30:	00c00034 	movhi	r3,0
    4a34:	18d29104 	addi	r3,r3,19012
    4a38:	20c9883a 	add	r4,r4,r3
    4a3c:	20c00017 	ldw	r3,0(r4)
    4a40:	1800683a 	jmp	r3
    4a44:	00004c90 	cmplti	zero,zero,306
    4a48:	00004aa4 	muli	zero,zero,298
    4a4c:	00004aa4 	muli	zero,zero,298
    4a50:	00004aa0 	cmpeqi	zero,zero,298
    4a54:	00004c6c 	andhi	zero,zero,305
    4a58:	00004c6c 	andhi	zero,zero,305
    4a5c:	00004c54 	movui	zero,305
    4a60:	00004aa0 	cmpeqi	zero,zero,298
    4a64:	00004c6c 	andhi	zero,zero,305
    4a68:	00004c54 	movui	zero,305
    4a6c:	00004c6c 	andhi	zero,zero,305
    4a70:	00004aa0 	cmpeqi	zero,zero,298
    4a74:	00004c7c 	xorhi	zero,zero,305
    4a78:	00004c7c 	xorhi	zero,zero,305
    4a7c:	00004c7c 	xorhi	zero,zero,305
    4a80:	00004e98 	cmpnei	zero,zero,314
    4a84:	2404b03a 	or	r2,r4,r16
    4a88:	10006f1e 	bne	r2,zero,4c48 <__muldf3+0x2f8>
    4a8c:	04c00204 	movi	r19,8
    4a90:	0021883a 	mov	r16,zero
    4a94:	0029883a 	mov	r20,zero
    4a98:	07000084 	movi	fp,2
    4a9c:	003fcb06 	br	49cc <_gp+0xffff5a64>
    4aa0:	502d883a 	mov	r22,r10
    4aa4:	00800084 	movi	r2,2
    4aa8:	28805726 	beq	r5,r2,4c08 <__muldf3+0x2b8>
    4aac:	008000c4 	movi	r2,3
    4ab0:	28816626 	beq	r5,r2,504c <__muldf3+0x6fc>
    4ab4:	00800044 	movi	r2,1
    4ab8:	2881411e 	bne	r5,r2,4fc0 <__muldf3+0x670>
    4abc:	b02b883a 	mov	r21,r22
    4ac0:	0005883a 	mov	r2,zero
    4ac4:	000b883a 	mov	r5,zero
    4ac8:	0029883a 	mov	r20,zero
    4acc:	1004953a 	slli	r2,r2,20
    4ad0:	a8c03fcc 	andi	r3,r21,255
    4ad4:	04400434 	movhi	r17,16
    4ad8:	8c7fffc4 	addi	r17,r17,-1
    4adc:	180697fa 	slli	r3,r3,31
    4ae0:	2c4a703a 	and	r5,r5,r17
    4ae4:	288ab03a 	or	r5,r5,r2
    4ae8:	28c6b03a 	or	r3,r5,r3
    4aec:	a005883a 	mov	r2,r20
    4af0:	dfc00c17 	ldw	ra,48(sp)
    4af4:	df000b17 	ldw	fp,44(sp)
    4af8:	ddc00a17 	ldw	r23,40(sp)
    4afc:	dd800917 	ldw	r22,36(sp)
    4b00:	dd400817 	ldw	r21,32(sp)
    4b04:	dd000717 	ldw	r20,28(sp)
    4b08:	dcc00617 	ldw	r19,24(sp)
    4b0c:	dc800517 	ldw	r18,20(sp)
    4b10:	dc400417 	ldw	r17,16(sp)
    4b14:	dc000317 	ldw	r16,12(sp)
    4b18:	dec00d04 	addi	sp,sp,52
    4b1c:	f800283a 	ret
    4b20:	2404b03a 	or	r2,r4,r16
    4b24:	2027883a 	mov	r19,r4
    4b28:	10004226 	beq	r2,zero,4c34 <__muldf3+0x2e4>
    4b2c:	8000fc26 	beq	r16,zero,4f20 <__muldf3+0x5d0>
    4b30:	8009883a 	mov	r4,r16
    4b34:	d9800215 	stw	r6,8(sp)
    4b38:	d9c00015 	stw	r7,0(sp)
    4b3c:	da400115 	stw	r9,4(sp)
    4b40:	00052b80 	call	52b8 <__clzsi2>
    4b44:	d9800217 	ldw	r6,8(sp)
    4b48:	d9c00017 	ldw	r7,0(sp)
    4b4c:	da400117 	ldw	r9,4(sp)
    4b50:	113ffd44 	addi	r4,r2,-11
    4b54:	00c00704 	movi	r3,28
    4b58:	1900ed16 	blt	r3,r4,4f10 <__muldf3+0x5c0>
    4b5c:	00c00744 	movi	r3,29
    4b60:	147ffe04 	addi	r17,r2,-8
    4b64:	1907c83a 	sub	r3,r3,r4
    4b68:	8460983a 	sll	r16,r16,r17
    4b6c:	98c6d83a 	srl	r3,r19,r3
    4b70:	9c68983a 	sll	r20,r19,r17
    4b74:	1c20b03a 	or	r16,r3,r16
    4b78:	1080fcc4 	addi	r2,r2,1011
    4b7c:	00a5c83a 	sub	r18,zero,r2
    4b80:	0027883a 	mov	r19,zero
    4b84:	0039883a 	mov	fp,zero
    4b88:	003f9006 	br	49cc <_gp+0xffff5a64>
    4b8c:	3446b03a 	or	r3,r6,r17
    4b90:	1800261e 	bne	r3,zero,4c2c <__muldf3+0x2dc>
    4b94:	0023883a 	mov	r17,zero
    4b98:	0011883a 	mov	r8,zero
    4b9c:	01400084 	movi	r5,2
    4ba0:	003f9c06 	br	4a14 <_gp+0xffff5aac>
    4ba4:	3446b03a 	or	r3,r6,r17
    4ba8:	18001c26 	beq	r3,zero,4c1c <__muldf3+0x2cc>
    4bac:	8800ce26 	beq	r17,zero,4ee8 <__muldf3+0x598>
    4bb0:	8809883a 	mov	r4,r17
    4bb4:	d9800215 	stw	r6,8(sp)
    4bb8:	da400115 	stw	r9,4(sp)
    4bbc:	da800015 	stw	r10,0(sp)
    4bc0:	00052b80 	call	52b8 <__clzsi2>
    4bc4:	d9800217 	ldw	r6,8(sp)
    4bc8:	da400117 	ldw	r9,4(sp)
    4bcc:	da800017 	ldw	r10,0(sp)
    4bd0:	113ffd44 	addi	r4,r2,-11
    4bd4:	00c00704 	movi	r3,28
    4bd8:	1900bf16 	blt	r3,r4,4ed8 <__muldf3+0x588>
    4bdc:	00c00744 	movi	r3,29
    4be0:	123ffe04 	addi	r8,r2,-8
    4be4:	1907c83a 	sub	r3,r3,r4
    4be8:	8a22983a 	sll	r17,r17,r8
    4bec:	30c6d83a 	srl	r3,r6,r3
    4bf0:	3210983a 	sll	r8,r6,r8
    4bf4:	1c62b03a 	or	r17,r3,r17
    4bf8:	1080fcc4 	addi	r2,r2,1011
    4bfc:	0085c83a 	sub	r2,zero,r2
    4c00:	000b883a 	mov	r5,zero
    4c04:	003f8306 	br	4a14 <_gp+0xffff5aac>
    4c08:	b02b883a 	mov	r21,r22
    4c0c:	0081ffc4 	movi	r2,2047
    4c10:	000b883a 	mov	r5,zero
    4c14:	0029883a 	mov	r20,zero
    4c18:	003fac06 	br	4acc <_gp+0xffff5b64>
    4c1c:	0023883a 	mov	r17,zero
    4c20:	0011883a 	mov	r8,zero
    4c24:	01400044 	movi	r5,1
    4c28:	003f7a06 	br	4a14 <_gp+0xffff5aac>
    4c2c:	014000c4 	movi	r5,3
    4c30:	003f7806 	br	4a14 <_gp+0xffff5aac>
    4c34:	04c00104 	movi	r19,4
    4c38:	0021883a 	mov	r16,zero
    4c3c:	0029883a 	mov	r20,zero
    4c40:	07000044 	movi	fp,1
    4c44:	003f6106 	br	49cc <_gp+0xffff5a64>
    4c48:	04c00304 	movi	r19,12
    4c4c:	070000c4 	movi	fp,3
    4c50:	003f5e06 	br	49cc <_gp+0xffff5a64>
    4c54:	01400434 	movhi	r5,16
    4c58:	002b883a 	mov	r21,zero
    4c5c:	297fffc4 	addi	r5,r5,-1
    4c60:	053fffc4 	movi	r20,-1
    4c64:	0081ffc4 	movi	r2,2047
    4c68:	003f9806 	br	4acc <_gp+0xffff5b64>
    4c6c:	8023883a 	mov	r17,r16
    4c70:	a011883a 	mov	r8,r20
    4c74:	e00b883a 	mov	r5,fp
    4c78:	003f8a06 	br	4aa4 <_gp+0xffff5b3c>
    4c7c:	8023883a 	mov	r17,r16
    4c80:	a011883a 	mov	r8,r20
    4c84:	482d883a 	mov	r22,r9
    4c88:	e00b883a 	mov	r5,fp
    4c8c:	003f8506 	br	4aa4 <_gp+0xffff5b3c>
    4c90:	a00ad43a 	srli	r5,r20,16
    4c94:	401ad43a 	srli	r13,r8,16
    4c98:	a53fffcc 	andi	r20,r20,65535
    4c9c:	423fffcc 	andi	r8,r8,65535
    4ca0:	4519383a 	mul	r12,r8,r20
    4ca4:	4147383a 	mul	r3,r8,r5
    4ca8:	6d09383a 	mul	r4,r13,r20
    4cac:	600cd43a 	srli	r6,r12,16
    4cb0:	2b5d383a 	mul	r14,r5,r13
    4cb4:	20c9883a 	add	r4,r4,r3
    4cb8:	310d883a 	add	r6,r6,r4
    4cbc:	30c0022e 	bgeu	r6,r3,4cc8 <__muldf3+0x378>
    4cc0:	00c00074 	movhi	r3,1
    4cc4:	70dd883a 	add	r14,r14,r3
    4cc8:	8826d43a 	srli	r19,r17,16
    4ccc:	8bffffcc 	andi	r15,r17,65535
    4cd0:	7d23383a 	mul	r17,r15,r20
    4cd4:	7949383a 	mul	r4,r15,r5
    4cd8:	9d29383a 	mul	r20,r19,r20
    4cdc:	8814d43a 	srli	r10,r17,16
    4ce0:	3012943a 	slli	r9,r6,16
    4ce4:	a129883a 	add	r20,r20,r4
    4ce8:	633fffcc 	andi	r12,r12,65535
    4cec:	5515883a 	add	r10,r10,r20
    4cf0:	3006d43a 	srli	r3,r6,16
    4cf4:	4b13883a 	add	r9,r9,r12
    4cf8:	2ccb383a 	mul	r5,r5,r19
    4cfc:	5100022e 	bgeu	r10,r4,4d08 <__muldf3+0x3b8>
    4d00:	01000074 	movhi	r4,1
    4d04:	290b883a 	add	r5,r5,r4
    4d08:	802ad43a 	srli	r21,r16,16
    4d0c:	843fffcc 	andi	r16,r16,65535
    4d10:	440d383a 	mul	r6,r8,r16
    4d14:	4565383a 	mul	r18,r8,r21
    4d18:	8349383a 	mul	r4,r16,r13
    4d1c:	500e943a 	slli	r7,r10,16
    4d20:	3010d43a 	srli	r8,r6,16
    4d24:	5028d43a 	srli	r20,r10,16
    4d28:	2489883a 	add	r4,r4,r18
    4d2c:	8abfffcc 	andi	r10,r17,65535
    4d30:	3a95883a 	add	r10,r7,r10
    4d34:	4119883a 	add	r12,r8,r4
    4d38:	a169883a 	add	r20,r20,r5
    4d3c:	1a87883a 	add	r3,r3,r10
    4d40:	6d5b383a 	mul	r13,r13,r21
    4d44:	6480022e 	bgeu	r12,r18,4d50 <__muldf3+0x400>
    4d48:	01000074 	movhi	r4,1
    4d4c:	691b883a 	add	r13,r13,r4
    4d50:	7c25383a 	mul	r18,r15,r16
    4d54:	7d4b383a 	mul	r5,r15,r21
    4d58:	84cf383a 	mul	r7,r16,r19
    4d5c:	901ed43a 	srli	r15,r18,16
    4d60:	6008d43a 	srli	r4,r12,16
    4d64:	6010943a 	slli	r8,r12,16
    4d68:	394f883a 	add	r7,r7,r5
    4d6c:	333fffcc 	andi	r12,r6,65535
    4d70:	79df883a 	add	r15,r15,r7
    4d74:	235b883a 	add	r13,r4,r13
    4d78:	9d63383a 	mul	r17,r19,r21
    4d7c:	4309883a 	add	r4,r8,r12
    4d80:	7940022e 	bgeu	r15,r5,4d8c <__muldf3+0x43c>
    4d84:	01400074 	movhi	r5,1
    4d88:	8963883a 	add	r17,r17,r5
    4d8c:	780a943a 	slli	r5,r15,16
    4d90:	91bfffcc 	andi	r6,r18,65535
    4d94:	70c7883a 	add	r3,r14,r3
    4d98:	298d883a 	add	r6,r5,r6
    4d9c:	1a8f803a 	cmpltu	r7,r3,r10
    4da0:	350b883a 	add	r5,r6,r20
    4da4:	20c7883a 	add	r3,r4,r3
    4da8:	3955883a 	add	r10,r7,r5
    4dac:	1909803a 	cmpltu	r4,r3,r4
    4db0:	6a91883a 	add	r8,r13,r10
    4db4:	780cd43a 	srli	r6,r15,16
    4db8:	2219883a 	add	r12,r4,r8
    4dbc:	2d0b803a 	cmpltu	r5,r5,r20
    4dc0:	51cf803a 	cmpltu	r7,r10,r7
    4dc4:	29ceb03a 	or	r7,r5,r7
    4dc8:	4351803a 	cmpltu	r8,r8,r13
    4dcc:	610b803a 	cmpltu	r5,r12,r4
    4dd0:	4148b03a 	or	r4,r8,r5
    4dd4:	398f883a 	add	r7,r7,r6
    4dd8:	3909883a 	add	r4,r7,r4
    4ddc:	1810927a 	slli	r8,r3,9
    4de0:	2449883a 	add	r4,r4,r17
    4de4:	2008927a 	slli	r4,r4,9
    4de8:	6022d5fa 	srli	r17,r12,23
    4dec:	1806d5fa 	srli	r3,r3,23
    4df0:	4252b03a 	or	r9,r8,r9
    4df4:	600a927a 	slli	r5,r12,9
    4df8:	4810c03a 	cmpne	r8,r9,zero
    4dfc:	2462b03a 	or	r17,r4,r17
    4e00:	40c6b03a 	or	r3,r8,r3
    4e04:	8900402c 	andhi	r4,r17,256
    4e08:	1950b03a 	or	r8,r3,r5
    4e0c:	20000726 	beq	r4,zero,4e2c <__muldf3+0x4dc>
    4e10:	4006d07a 	srli	r3,r8,1
    4e14:	880497fa 	slli	r2,r17,31
    4e18:	4200004c 	andi	r8,r8,1
    4e1c:	8822d07a 	srli	r17,r17,1
    4e20:	1a10b03a 	or	r8,r3,r8
    4e24:	1210b03a 	or	r8,r2,r8
    4e28:	5805883a 	mov	r2,r11
    4e2c:	1140ffc4 	addi	r5,r2,1023
    4e30:	0140440e 	bge	zero,r5,4f44 <__muldf3+0x5f4>
    4e34:	40c001cc 	andi	r3,r8,7
    4e38:	18000726 	beq	r3,zero,4e58 <__muldf3+0x508>
    4e3c:	40c003cc 	andi	r3,r8,15
    4e40:	01000104 	movi	r4,4
    4e44:	19000426 	beq	r3,r4,4e58 <__muldf3+0x508>
    4e48:	4107883a 	add	r3,r8,r4
    4e4c:	1a11803a 	cmpltu	r8,r3,r8
    4e50:	8a23883a 	add	r17,r17,r8
    4e54:	1811883a 	mov	r8,r3
    4e58:	88c0402c 	andhi	r3,r17,256
    4e5c:	18000426 	beq	r3,zero,4e70 <__muldf3+0x520>
    4e60:	11410004 	addi	r5,r2,1024
    4e64:	00bfc034 	movhi	r2,65280
    4e68:	10bfffc4 	addi	r2,r2,-1
    4e6c:	88a2703a 	and	r17,r17,r2
    4e70:	0081ff84 	movi	r2,2046
    4e74:	117f6416 	blt	r2,r5,4c08 <_gp+0xffff5ca0>
    4e78:	8828977a 	slli	r20,r17,29
    4e7c:	4010d0fa 	srli	r8,r8,3
    4e80:	8822927a 	slli	r17,r17,9
    4e84:	2881ffcc 	andi	r2,r5,2047
    4e88:	a228b03a 	or	r20,r20,r8
    4e8c:	880ad33a 	srli	r5,r17,12
    4e90:	b02b883a 	mov	r21,r22
    4e94:	003f0d06 	br	4acc <_gp+0xffff5b64>
    4e98:	8080022c 	andhi	r2,r16,8
    4e9c:	10000926 	beq	r2,zero,4ec4 <__muldf3+0x574>
    4ea0:	8880022c 	andhi	r2,r17,8
    4ea4:	1000071e 	bne	r2,zero,4ec4 <__muldf3+0x574>
    4ea8:	00800434 	movhi	r2,16
    4eac:	89400234 	orhi	r5,r17,8
    4eb0:	10bfffc4 	addi	r2,r2,-1
    4eb4:	b82b883a 	mov	r21,r23
    4eb8:	288a703a 	and	r5,r5,r2
    4ebc:	4029883a 	mov	r20,r8
    4ec0:	003f6806 	br	4c64 <_gp+0xffff5cfc>
    4ec4:	00800434 	movhi	r2,16
    4ec8:	81400234 	orhi	r5,r16,8
    4ecc:	10bfffc4 	addi	r2,r2,-1
    4ed0:	288a703a 	and	r5,r5,r2
    4ed4:	003f6306 	br	4c64 <_gp+0xffff5cfc>
    4ed8:	147ff604 	addi	r17,r2,-40
    4edc:	3462983a 	sll	r17,r6,r17
    4ee0:	0011883a 	mov	r8,zero
    4ee4:	003f4406 	br	4bf8 <_gp+0xffff5c90>
    4ee8:	3009883a 	mov	r4,r6
    4eec:	d9800215 	stw	r6,8(sp)
    4ef0:	da400115 	stw	r9,4(sp)
    4ef4:	da800015 	stw	r10,0(sp)
    4ef8:	00052b80 	call	52b8 <__clzsi2>
    4efc:	10800804 	addi	r2,r2,32
    4f00:	da800017 	ldw	r10,0(sp)
    4f04:	da400117 	ldw	r9,4(sp)
    4f08:	d9800217 	ldw	r6,8(sp)
    4f0c:	003f3006 	br	4bd0 <_gp+0xffff5c68>
    4f10:	143ff604 	addi	r16,r2,-40
    4f14:	9c20983a 	sll	r16,r19,r16
    4f18:	0029883a 	mov	r20,zero
    4f1c:	003f1606 	br	4b78 <_gp+0xffff5c10>
    4f20:	d9800215 	stw	r6,8(sp)
    4f24:	d9c00015 	stw	r7,0(sp)
    4f28:	da400115 	stw	r9,4(sp)
    4f2c:	00052b80 	call	52b8 <__clzsi2>
    4f30:	10800804 	addi	r2,r2,32
    4f34:	da400117 	ldw	r9,4(sp)
    4f38:	d9c00017 	ldw	r7,0(sp)
    4f3c:	d9800217 	ldw	r6,8(sp)
    4f40:	003f0306 	br	4b50 <_gp+0xffff5be8>
    4f44:	00c00044 	movi	r3,1
    4f48:	1947c83a 	sub	r3,r3,r5
    4f4c:	00800e04 	movi	r2,56
    4f50:	10feda16 	blt	r2,r3,4abc <_gp+0xffff5b54>
    4f54:	008007c4 	movi	r2,31
    4f58:	10c01b16 	blt	r2,r3,4fc8 <__muldf3+0x678>
    4f5c:	00800804 	movi	r2,32
    4f60:	10c5c83a 	sub	r2,r2,r3
    4f64:	888a983a 	sll	r5,r17,r2
    4f68:	40c8d83a 	srl	r4,r8,r3
    4f6c:	4084983a 	sll	r2,r8,r2
    4f70:	88e2d83a 	srl	r17,r17,r3
    4f74:	2906b03a 	or	r3,r5,r4
    4f78:	1004c03a 	cmpne	r2,r2,zero
    4f7c:	1886b03a 	or	r3,r3,r2
    4f80:	188001cc 	andi	r2,r3,7
    4f84:	10000726 	beq	r2,zero,4fa4 <__muldf3+0x654>
    4f88:	188003cc 	andi	r2,r3,15
    4f8c:	01000104 	movi	r4,4
    4f90:	11000426 	beq	r2,r4,4fa4 <__muldf3+0x654>
    4f94:	1805883a 	mov	r2,r3
    4f98:	10c00104 	addi	r3,r2,4
    4f9c:	1885803a 	cmpltu	r2,r3,r2
    4fa0:	88a3883a 	add	r17,r17,r2
    4fa4:	8880202c 	andhi	r2,r17,128
    4fa8:	10001c26 	beq	r2,zero,501c <__muldf3+0x6cc>
    4fac:	b02b883a 	mov	r21,r22
    4fb0:	00800044 	movi	r2,1
    4fb4:	000b883a 	mov	r5,zero
    4fb8:	0029883a 	mov	r20,zero
    4fbc:	003ec306 	br	4acc <_gp+0xffff5b64>
    4fc0:	5805883a 	mov	r2,r11
    4fc4:	003f9906 	br	4e2c <_gp+0xffff5ec4>
    4fc8:	00bff844 	movi	r2,-31
    4fcc:	1145c83a 	sub	r2,r2,r5
    4fd0:	8888d83a 	srl	r4,r17,r2
    4fd4:	00800804 	movi	r2,32
    4fd8:	18801a26 	beq	r3,r2,5044 <__muldf3+0x6f4>
    4fdc:	00801004 	movi	r2,64
    4fe0:	10c5c83a 	sub	r2,r2,r3
    4fe4:	8884983a 	sll	r2,r17,r2
    4fe8:	1204b03a 	or	r2,r2,r8
    4fec:	1004c03a 	cmpne	r2,r2,zero
    4ff0:	2084b03a 	or	r2,r4,r2
    4ff4:	144001cc 	andi	r17,r2,7
    4ff8:	88000d1e 	bne	r17,zero,5030 <__muldf3+0x6e0>
    4ffc:	000b883a 	mov	r5,zero
    5000:	1028d0fa 	srli	r20,r2,3
    5004:	b02b883a 	mov	r21,r22
    5008:	0005883a 	mov	r2,zero
    500c:	a468b03a 	or	r20,r20,r17
    5010:	003eae06 	br	4acc <_gp+0xffff5b64>
    5014:	1007883a 	mov	r3,r2
    5018:	0023883a 	mov	r17,zero
    501c:	880a927a 	slli	r5,r17,9
    5020:	1805883a 	mov	r2,r3
    5024:	8822977a 	slli	r17,r17,29
    5028:	280ad33a 	srli	r5,r5,12
    502c:	003ff406 	br	5000 <_gp+0xffff6098>
    5030:	10c003cc 	andi	r3,r2,15
    5034:	01000104 	movi	r4,4
    5038:	193ff626 	beq	r3,r4,5014 <_gp+0xffff60ac>
    503c:	0023883a 	mov	r17,zero
    5040:	003fd506 	br	4f98 <_gp+0xffff6030>
    5044:	0005883a 	mov	r2,zero
    5048:	003fe706 	br	4fe8 <_gp+0xffff6080>
    504c:	00800434 	movhi	r2,16
    5050:	89400234 	orhi	r5,r17,8
    5054:	10bfffc4 	addi	r2,r2,-1
    5058:	b02b883a 	mov	r21,r22
    505c:	288a703a 	and	r5,r5,r2
    5060:	4029883a 	mov	r20,r8
    5064:	003eff06 	br	4c64 <_gp+0xffff5cfc>

00005068 <__floatunsidf>:
    5068:	defffe04 	addi	sp,sp,-8
    506c:	dc000015 	stw	r16,0(sp)
    5070:	dfc00115 	stw	ra,4(sp)
    5074:	2021883a 	mov	r16,r4
    5078:	20002226 	beq	r4,zero,5104 <__floatunsidf+0x9c>
    507c:	00052b80 	call	52b8 <__clzsi2>
    5080:	01010784 	movi	r4,1054
    5084:	2089c83a 	sub	r4,r4,r2
    5088:	01810cc4 	movi	r6,1075
    508c:	310dc83a 	sub	r6,r6,r4
    5090:	00c007c4 	movi	r3,31
    5094:	1980120e 	bge	r3,r6,50e0 <__floatunsidf+0x78>
    5098:	00c104c4 	movi	r3,1043
    509c:	1907c83a 	sub	r3,r3,r4
    50a0:	80ca983a 	sll	r5,r16,r3
    50a4:	00800434 	movhi	r2,16
    50a8:	10bfffc4 	addi	r2,r2,-1
    50ac:	2101ffcc 	andi	r4,r4,2047
    50b0:	0021883a 	mov	r16,zero
    50b4:	288a703a 	and	r5,r5,r2
    50b8:	2008953a 	slli	r4,r4,20
    50bc:	00c00434 	movhi	r3,16
    50c0:	18ffffc4 	addi	r3,r3,-1
    50c4:	28c6703a 	and	r3,r5,r3
    50c8:	8005883a 	mov	r2,r16
    50cc:	1906b03a 	or	r3,r3,r4
    50d0:	dfc00117 	ldw	ra,4(sp)
    50d4:	dc000017 	ldw	r16,0(sp)
    50d8:	dec00204 	addi	sp,sp,8
    50dc:	f800283a 	ret
    50e0:	00c002c4 	movi	r3,11
    50e4:	188bc83a 	sub	r5,r3,r2
    50e8:	814ad83a 	srl	r5,r16,r5
    50ec:	00c00434 	movhi	r3,16
    50f0:	18ffffc4 	addi	r3,r3,-1
    50f4:	81a0983a 	sll	r16,r16,r6
    50f8:	2101ffcc 	andi	r4,r4,2047
    50fc:	28ca703a 	and	r5,r5,r3
    5100:	003fed06 	br	50b8 <_gp+0xffff6150>
    5104:	0009883a 	mov	r4,zero
    5108:	000b883a 	mov	r5,zero
    510c:	003fea06 	br	50b8 <_gp+0xffff6150>

00005110 <__truncdfsf2>:
    5110:	2810d53a 	srli	r8,r5,20
    5114:	01c00434 	movhi	r7,16
    5118:	39ffffc4 	addi	r7,r7,-1
    511c:	29ce703a 	and	r7,r5,r7
    5120:	4201ffcc 	andi	r8,r8,2047
    5124:	380e90fa 	slli	r7,r7,3
    5128:	200cd77a 	srli	r6,r4,29
    512c:	42400044 	addi	r9,r8,1
    5130:	4a41ffcc 	andi	r9,r9,2047
    5134:	00c00044 	movi	r3,1
    5138:	280ad7fa 	srli	r5,r5,31
    513c:	31ceb03a 	or	r7,r6,r7
    5140:	200490fa 	slli	r2,r4,3
    5144:	1a40230e 	bge	r3,r9,51d4 <__truncdfsf2+0xc4>
    5148:	40ff2004 	addi	r3,r8,-896
    514c:	01803f84 	movi	r6,254
    5150:	30c01516 	blt	r6,r3,51a8 <__truncdfsf2+0x98>
    5154:	00c0380e 	bge	zero,r3,5238 <__truncdfsf2+0x128>
    5158:	200c91ba 	slli	r6,r4,6
    515c:	380e90fa 	slli	r7,r7,3
    5160:	1004d77a 	srli	r2,r2,29
    5164:	300cc03a 	cmpne	r6,r6,zero
    5168:	31ccb03a 	or	r6,r6,r7
    516c:	308cb03a 	or	r6,r6,r2
    5170:	308001cc 	andi	r2,r6,7
    5174:	10000426 	beq	r2,zero,5188 <__truncdfsf2+0x78>
    5178:	308003cc 	andi	r2,r6,15
    517c:	01000104 	movi	r4,4
    5180:	11000126 	beq	r2,r4,5188 <__truncdfsf2+0x78>
    5184:	31800104 	addi	r6,r6,4
    5188:	3081002c 	andhi	r2,r6,1024
    518c:	10001626 	beq	r2,zero,51e8 <__truncdfsf2+0xd8>
    5190:	18c00044 	addi	r3,r3,1
    5194:	00803fc4 	movi	r2,255
    5198:	18800326 	beq	r3,r2,51a8 <__truncdfsf2+0x98>
    519c:	300c91ba 	slli	r6,r6,6
    51a0:	300cd27a 	srli	r6,r6,9
    51a4:	00000206 	br	51b0 <__truncdfsf2+0xa0>
    51a8:	00ffffc4 	movi	r3,-1
    51ac:	000d883a 	mov	r6,zero
    51b0:	18c03fcc 	andi	r3,r3,255
    51b4:	180895fa 	slli	r4,r3,23
    51b8:	00c02034 	movhi	r3,128
    51bc:	280a97fa 	slli	r5,r5,31
    51c0:	18ffffc4 	addi	r3,r3,-1
    51c4:	30c6703a 	and	r3,r6,r3
    51c8:	1906b03a 	or	r3,r3,r4
    51cc:	1944b03a 	or	r2,r3,r5
    51d0:	f800283a 	ret
    51d4:	40000b1e 	bne	r8,zero,5204 <__truncdfsf2+0xf4>
    51d8:	388cb03a 	or	r6,r7,r2
    51dc:	0007883a 	mov	r3,zero
    51e0:	30000426 	beq	r6,zero,51f4 <__truncdfsf2+0xe4>
    51e4:	01800144 	movi	r6,5
    51e8:	00803fc4 	movi	r2,255
    51ec:	300cd0fa 	srli	r6,r6,3
    51f0:	18800a26 	beq	r3,r2,521c <__truncdfsf2+0x10c>
    51f4:	00802034 	movhi	r2,128
    51f8:	10bfffc4 	addi	r2,r2,-1
    51fc:	308c703a 	and	r6,r6,r2
    5200:	003feb06 	br	51b0 <_gp+0xffff6248>
    5204:	3888b03a 	or	r4,r7,r2
    5208:	203fe726 	beq	r4,zero,51a8 <_gp+0xffff6240>
    520c:	380c90fa 	slli	r6,r7,3
    5210:	00c03fc4 	movi	r3,255
    5214:	31808034 	orhi	r6,r6,512
    5218:	003fd506 	br	5170 <_gp+0xffff6208>
    521c:	303fe226 	beq	r6,zero,51a8 <_gp+0xffff6240>
    5220:	00802034 	movhi	r2,128
    5224:	31801034 	orhi	r6,r6,64
    5228:	10bfffc4 	addi	r2,r2,-1
    522c:	00ffffc4 	movi	r3,-1
    5230:	308c703a 	and	r6,r6,r2
    5234:	003fde06 	br	51b0 <_gp+0xffff6248>
    5238:	013ffa44 	movi	r4,-23
    523c:	19000e16 	blt	r3,r4,5278 <__truncdfsf2+0x168>
    5240:	01000784 	movi	r4,30
    5244:	20c9c83a 	sub	r4,r4,r3
    5248:	018007c4 	movi	r6,31
    524c:	39c02034 	orhi	r7,r7,128
    5250:	31000b16 	blt	r6,r4,5280 <__truncdfsf2+0x170>
    5254:	423f2084 	addi	r8,r8,-894
    5258:	120c983a 	sll	r6,r2,r8
    525c:	3a0e983a 	sll	r7,r7,r8
    5260:	1104d83a 	srl	r2,r2,r4
    5264:	300cc03a 	cmpne	r6,r6,zero
    5268:	31ceb03a 	or	r7,r6,r7
    526c:	388cb03a 	or	r6,r7,r2
    5270:	0007883a 	mov	r3,zero
    5274:	003fbe06 	br	5170 <_gp+0xffff6208>
    5278:	0007883a 	mov	r3,zero
    527c:	003fd906 	br	51e4 <_gp+0xffff627c>
    5280:	01bfff84 	movi	r6,-2
    5284:	30cdc83a 	sub	r6,r6,r3
    5288:	00c00804 	movi	r3,32
    528c:	398cd83a 	srl	r6,r7,r6
    5290:	20c00726 	beq	r4,r3,52b0 <__truncdfsf2+0x1a0>
    5294:	423f2884 	addi	r8,r8,-862
    5298:	3a0e983a 	sll	r7,r7,r8
    529c:	3884b03a 	or	r2,r7,r2
    52a0:	1004c03a 	cmpne	r2,r2,zero
    52a4:	118cb03a 	or	r6,r2,r6
    52a8:	0007883a 	mov	r3,zero
    52ac:	003fb006 	br	5170 <_gp+0xffff6208>
    52b0:	000f883a 	mov	r7,zero
    52b4:	003ff906 	br	529c <_gp+0xffff6334>

000052b8 <__clzsi2>:
    52b8:	00bfffd4 	movui	r2,65535
    52bc:	11000536 	bltu	r2,r4,52d4 <__clzsi2+0x1c>
    52c0:	00803fc4 	movi	r2,255
    52c4:	11000f36 	bltu	r2,r4,5304 <__clzsi2+0x4c>
    52c8:	00800804 	movi	r2,32
    52cc:	0007883a 	mov	r3,zero
    52d0:	00000506 	br	52e8 <__clzsi2+0x30>
    52d4:	00804034 	movhi	r2,256
    52d8:	10bfffc4 	addi	r2,r2,-1
    52dc:	11000c2e 	bgeu	r2,r4,5310 <__clzsi2+0x58>
    52e0:	00800204 	movi	r2,8
    52e4:	00c00604 	movi	r3,24
    52e8:	20c8d83a 	srl	r4,r4,r3
    52ec:	00c00034 	movhi	r3,0
    52f0:	18daca04 	addi	r3,r3,27432
    52f4:	1909883a 	add	r4,r3,r4
    52f8:	20c00003 	ldbu	r3,0(r4)
    52fc:	10c5c83a 	sub	r2,r2,r3
    5300:	f800283a 	ret
    5304:	00800604 	movi	r2,24
    5308:	00c00204 	movi	r3,8
    530c:	003ff606 	br	52e8 <_gp+0xffff6380>
    5310:	00800404 	movi	r2,16
    5314:	1007883a 	mov	r3,r2
    5318:	003ff306 	br	52e8 <_gp+0xffff6380>

0000531c <alt_load_section>:
    531c:	defffc04 	addi	sp,sp,-16
    5320:	df000315 	stw	fp,12(sp)
    5324:	df000304 	addi	fp,sp,12
    5328:	e13ffd15 	stw	r4,-12(fp)
    532c:	e17ffe15 	stw	r5,-8(fp)
    5330:	e1bfff15 	stw	r6,-4(fp)
    5334:	e0fffe17 	ldw	r3,-8(fp)
    5338:	e0bffd17 	ldw	r2,-12(fp)
    533c:	18800c26 	beq	r3,r2,5370 <alt_load_section+0x54>
    5340:	00000806 	br	5364 <alt_load_section+0x48>
    5344:	e0bffe17 	ldw	r2,-8(fp)
    5348:	10c00104 	addi	r3,r2,4
    534c:	e0fffe15 	stw	r3,-8(fp)
    5350:	e0fffd17 	ldw	r3,-12(fp)
    5354:	19000104 	addi	r4,r3,4
    5358:	e13ffd15 	stw	r4,-12(fp)
    535c:	18c00017 	ldw	r3,0(r3)
    5360:	10c00015 	stw	r3,0(r2)
    5364:	e0fffe17 	ldw	r3,-8(fp)
    5368:	e0bfff17 	ldw	r2,-4(fp)
    536c:	18bff51e 	bne	r3,r2,5344 <_gp+0xffff63dc>
    5370:	0001883a 	nop
    5374:	e037883a 	mov	sp,fp
    5378:	df000017 	ldw	fp,0(sp)
    537c:	dec00104 	addi	sp,sp,4
    5380:	f800283a 	ret

00005384 <alt_load>:
    5384:	defffe04 	addi	sp,sp,-8
    5388:	dfc00115 	stw	ra,4(sp)
    538c:	df000015 	stw	fp,0(sp)
    5390:	d839883a 	mov	fp,sp
    5394:	01800034 	movhi	r6,0
    5398:	319be504 	addi	r6,r6,28564
    539c:	01400034 	movhi	r5,0
    53a0:	295b1504 	addi	r5,r5,27732
    53a4:	01000034 	movhi	r4,0
    53a8:	211be504 	addi	r4,r4,28564
    53ac:	000531c0 	call	531c <alt_load_section>
    53b0:	01800034 	movhi	r6,0
    53b4:	31909104 	addi	r6,r6,16964
    53b8:	01400034 	movhi	r5,0
    53bc:	29500804 	addi	r5,r5,16416
    53c0:	01000034 	movhi	r4,0
    53c4:	21100804 	addi	r4,r4,16416
    53c8:	000531c0 	call	531c <alt_load_section>
    53cc:	01800034 	movhi	r6,0
    53d0:	319b1504 	addi	r6,r6,27732
    53d4:	01400034 	movhi	r5,0
    53d8:	295aca04 	addi	r5,r5,27432
    53dc:	01000034 	movhi	r4,0
    53e0:	211aca04 	addi	r4,r4,27432
    53e4:	000531c0 	call	531c <alt_load_section>
    53e8:	000597c0 	call	597c <alt_dcache_flush_all>
    53ec:	0005b900 	call	5b90 <alt_icache_flush_all>
    53f0:	0001883a 	nop
    53f4:	e037883a 	mov	sp,fp
    53f8:	dfc00117 	ldw	ra,4(sp)
    53fc:	df000017 	ldw	fp,0(sp)
    5400:	dec00204 	addi	sp,sp,8
    5404:	f800283a 	ret

00005408 <alt_main>:
    5408:	defffd04 	addi	sp,sp,-12
    540c:	dfc00215 	stw	ra,8(sp)
    5410:	df000115 	stw	fp,4(sp)
    5414:	df000104 	addi	fp,sp,4
    5418:	0009883a 	mov	r4,zero
    541c:	00054b80 	call	54b8 <alt_irq_init>
    5420:	0001883a 	nop
    5424:	00054f00 	call	54f0 <alt_sys_init>
    5428:	01800034 	movhi	r6,0
    542c:	319b0a04 	addi	r6,r6,27688
    5430:	01400034 	movhi	r5,0
    5434:	295b0a04 	addi	r5,r5,27688
    5438:	01000034 	movhi	r4,0
    543c:	211b0a04 	addi	r4,r4,27688
    5440:	0005f280 	call	5f28 <alt_io_redirect>
    5444:	0005ad00 	call	5ad0 <_do_ctors>
    5448:	01000034 	movhi	r4,0
    544c:	2116cc04 	addi	r4,r4,23344
    5450:	000678c0 	call	678c <atexit>
    5454:	d0a0db17 	ldw	r2,-31892(gp)
    5458:	d0e0dc17 	ldw	r3,-31888(gp)
    545c:	d120dd17 	ldw	r4,-31884(gp)
    5460:	200d883a 	mov	r6,r4
    5464:	180b883a 	mov	r5,r3
    5468:	1009883a 	mov	r4,r2
    546c:	00044d40 	call	44d4 <main>
    5470:	e0bfff15 	stw	r2,-4(fp)
    5474:	01000044 	movi	r4,1
    5478:	00058ac0 	call	58ac <close>
    547c:	e13fff17 	ldw	r4,-4(fp)
    5480:	00067a00 	call	67a0 <exit>

00005484 <alt_dev_reg>:
    5484:	defffd04 	addi	sp,sp,-12
    5488:	dfc00215 	stw	ra,8(sp)
    548c:	df000115 	stw	fp,4(sp)
    5490:	df000104 	addi	fp,sp,4
    5494:	e13fff15 	stw	r4,-4(fp)
    5498:	d1600204 	addi	r5,gp,-32760
    549c:	e13fff17 	ldw	r4,-4(fp)
    54a0:	0005a2c0 	call	5a2c <alt_dev_llist_insert>
    54a4:	e037883a 	mov	sp,fp
    54a8:	dfc00117 	ldw	ra,4(sp)
    54ac:	df000017 	ldw	fp,0(sp)
    54b0:	dec00204 	addi	sp,sp,8
    54b4:	f800283a 	ret

000054b8 <alt_irq_init>:
    54b8:	defffd04 	addi	sp,sp,-12
    54bc:	dfc00215 	stw	ra,8(sp)
    54c0:	df000115 	stw	fp,4(sp)
    54c4:	df000104 	addi	fp,sp,4
    54c8:	e13fff15 	stw	r4,-4(fp)
    54cc:	00064000 	call	6400 <altera_nios2_gen2_irq_init>
    54d0:	00800044 	movi	r2,1
    54d4:	1001703a 	wrctl	status,r2
    54d8:	0001883a 	nop
    54dc:	e037883a 	mov	sp,fp
    54e0:	dfc00117 	ldw	ra,4(sp)
    54e4:	df000017 	ldw	fp,0(sp)
    54e8:	dec00204 	addi	sp,sp,8
    54ec:	f800283a 	ret

000054f0 <alt_sys_init>:
    54f0:	defffe04 	addi	sp,sp,-8
    54f4:	dfc00115 	stw	ra,4(sp)
    54f8:	df000015 	stw	fp,0(sp)
    54fc:	d839883a 	mov	fp,sp
    5500:	01c0fa04 	movi	r7,1000
    5504:	01800044 	movi	r6,1
    5508:	000b883a 	mov	r5,zero
    550c:	01244014 	movui	r4,37120
    5510:	00057f40 	call	57f4 <alt_avalon_timer_sc_init>
    5514:	01000034 	movhi	r4,0
    5518:	211b2d04 	addi	r4,r4,27828
    551c:	00054840 	call	5484 <alt_dev_reg>
    5520:	0001883a 	nop
    5524:	0001883a 	nop
    5528:	e037883a 	mov	sp,fp
    552c:	dfc00117 	ldw	ra,4(sp)
    5530:	df000017 	ldw	fp,0(sp)
    5534:	dec00204 	addi	sp,sp,8
    5538:	f800283a 	ret

0000553c <altera_avalon_jtag_uart_read_fd>:
    553c:	defffa04 	addi	sp,sp,-24
    5540:	dfc00515 	stw	ra,20(sp)
    5544:	df000415 	stw	fp,16(sp)
    5548:	df000404 	addi	fp,sp,16
    554c:	e13ffd15 	stw	r4,-12(fp)
    5550:	e17ffe15 	stw	r5,-8(fp)
    5554:	e1bfff15 	stw	r6,-4(fp)
    5558:	e0bffd17 	ldw	r2,-12(fp)
    555c:	10800017 	ldw	r2,0(r2)
    5560:	e0bffc15 	stw	r2,-16(fp)
    5564:	e0bffc17 	ldw	r2,-16(fp)
    5568:	10c00a04 	addi	r3,r2,40
    556c:	e0bffd17 	ldw	r2,-12(fp)
    5570:	10800217 	ldw	r2,8(r2)
    5574:	100f883a 	mov	r7,r2
    5578:	e1bfff17 	ldw	r6,-4(fp)
    557c:	e17ffe17 	ldw	r5,-8(fp)
    5580:	1809883a 	mov	r4,r3
    5584:	00055fc0 	call	55fc <altera_avalon_jtag_uart_read>
    5588:	e037883a 	mov	sp,fp
    558c:	dfc00117 	ldw	ra,4(sp)
    5590:	df000017 	ldw	fp,0(sp)
    5594:	dec00204 	addi	sp,sp,8
    5598:	f800283a 	ret

0000559c <altera_avalon_jtag_uart_write_fd>:
    559c:	defffa04 	addi	sp,sp,-24
    55a0:	dfc00515 	stw	ra,20(sp)
    55a4:	df000415 	stw	fp,16(sp)
    55a8:	df000404 	addi	fp,sp,16
    55ac:	e13ffd15 	stw	r4,-12(fp)
    55b0:	e17ffe15 	stw	r5,-8(fp)
    55b4:	e1bfff15 	stw	r6,-4(fp)
    55b8:	e0bffd17 	ldw	r2,-12(fp)
    55bc:	10800017 	ldw	r2,0(r2)
    55c0:	e0bffc15 	stw	r2,-16(fp)
    55c4:	e0bffc17 	ldw	r2,-16(fp)
    55c8:	10c00a04 	addi	r3,r2,40
    55cc:	e0bffd17 	ldw	r2,-12(fp)
    55d0:	10800217 	ldw	r2,8(r2)
    55d4:	100f883a 	mov	r7,r2
    55d8:	e1bfff17 	ldw	r6,-4(fp)
    55dc:	e17ffe17 	ldw	r5,-8(fp)
    55e0:	1809883a 	mov	r4,r3
    55e4:	00056e80 	call	56e8 <altera_avalon_jtag_uart_write>
    55e8:	e037883a 	mov	sp,fp
    55ec:	dfc00117 	ldw	ra,4(sp)
    55f0:	df000017 	ldw	fp,0(sp)
    55f4:	dec00204 	addi	sp,sp,8
    55f8:	f800283a 	ret

000055fc <altera_avalon_jtag_uart_read>:
    55fc:	defff704 	addi	sp,sp,-36
    5600:	df000815 	stw	fp,32(sp)
    5604:	df000804 	addi	fp,sp,32
    5608:	e13ffc15 	stw	r4,-16(fp)
    560c:	e17ffd15 	stw	r5,-12(fp)
    5610:	e1bffe15 	stw	r6,-8(fp)
    5614:	e1ffff15 	stw	r7,-4(fp)
    5618:	e0bffc17 	ldw	r2,-16(fp)
    561c:	10800017 	ldw	r2,0(r2)
    5620:	e0bff915 	stw	r2,-28(fp)
    5624:	e0bffd17 	ldw	r2,-12(fp)
    5628:	e0bff815 	stw	r2,-32(fp)
    562c:	e0bffe17 	ldw	r2,-8(fp)
    5630:	e0fffd17 	ldw	r3,-12(fp)
    5634:	1885883a 	add	r2,r3,r2
    5638:	e0bffa15 	stw	r2,-24(fp)
    563c:	00001206 	br	5688 <altera_avalon_jtag_uart_read+0x8c>
    5640:	e0bff917 	ldw	r2,-28(fp)
    5644:	10800037 	ldwio	r2,0(r2)
    5648:	e0bffb15 	stw	r2,-20(fp)
    564c:	e0bffb17 	ldw	r2,-20(fp)
    5650:	10a0000c 	andi	r2,r2,32768
    5654:	10000626 	beq	r2,zero,5670 <altera_avalon_jtag_uart_read+0x74>
    5658:	e0bff817 	ldw	r2,-32(fp)
    565c:	10c00044 	addi	r3,r2,1
    5660:	e0fff815 	stw	r3,-32(fp)
    5664:	e0fffb17 	ldw	r3,-20(fp)
    5668:	10c00005 	stb	r3,0(r2)
    566c:	00000606 	br	5688 <altera_avalon_jtag_uart_read+0x8c>
    5670:	e0fff817 	ldw	r3,-32(fp)
    5674:	e0bffd17 	ldw	r2,-12(fp)
    5678:	1880071e 	bne	r3,r2,5698 <altera_avalon_jtag_uart_read+0x9c>
    567c:	e0bfff17 	ldw	r2,-4(fp)
    5680:	1090000c 	andi	r2,r2,16384
    5684:	1000061e 	bne	r2,zero,56a0 <altera_avalon_jtag_uart_read+0xa4>
    5688:	e0fff817 	ldw	r3,-32(fp)
    568c:	e0bffa17 	ldw	r2,-24(fp)
    5690:	18bfeb36 	bltu	r3,r2,5640 <_gp+0xffff66d8>
    5694:	00000306 	br	56a4 <altera_avalon_jtag_uart_read+0xa8>
    5698:	0001883a 	nop
    569c:	00000106 	br	56a4 <altera_avalon_jtag_uart_read+0xa8>
    56a0:	0001883a 	nop
    56a4:	e0fff817 	ldw	r3,-32(fp)
    56a8:	e0bffd17 	ldw	r2,-12(fp)
    56ac:	18800426 	beq	r3,r2,56c0 <altera_avalon_jtag_uart_read+0xc4>
    56b0:	e0fff817 	ldw	r3,-32(fp)
    56b4:	e0bffd17 	ldw	r2,-12(fp)
    56b8:	1885c83a 	sub	r2,r3,r2
    56bc:	00000606 	br	56d8 <altera_avalon_jtag_uart_read+0xdc>
    56c0:	e0bfff17 	ldw	r2,-4(fp)
    56c4:	1090000c 	andi	r2,r2,16384
    56c8:	10000226 	beq	r2,zero,56d4 <altera_avalon_jtag_uart_read+0xd8>
    56cc:	00bffd44 	movi	r2,-11
    56d0:	00000106 	br	56d8 <altera_avalon_jtag_uart_read+0xdc>
    56d4:	00bffec4 	movi	r2,-5
    56d8:	e037883a 	mov	sp,fp
    56dc:	df000017 	ldw	fp,0(sp)
    56e0:	dec00104 	addi	sp,sp,4
    56e4:	f800283a 	ret

000056e8 <altera_avalon_jtag_uart_write>:
    56e8:	defff904 	addi	sp,sp,-28
    56ec:	df000615 	stw	fp,24(sp)
    56f0:	df000604 	addi	fp,sp,24
    56f4:	e13ffc15 	stw	r4,-16(fp)
    56f8:	e17ffd15 	stw	r5,-12(fp)
    56fc:	e1bffe15 	stw	r6,-8(fp)
    5700:	e1ffff15 	stw	r7,-4(fp)
    5704:	e0bffc17 	ldw	r2,-16(fp)
    5708:	10800017 	ldw	r2,0(r2)
    570c:	e0bffa15 	stw	r2,-24(fp)
    5710:	e0bffe17 	ldw	r2,-8(fp)
    5714:	e0fffd17 	ldw	r3,-12(fp)
    5718:	1885883a 	add	r2,r3,r2
    571c:	e0bffb15 	stw	r2,-20(fp)
    5720:	00000e06 	br	575c <altera_avalon_jtag_uart_write+0x74>
    5724:	e0bffa17 	ldw	r2,-24(fp)
    5728:	10800104 	addi	r2,r2,4
    572c:	10800037 	ldwio	r2,0(r2)
    5730:	10bfffec 	andhi	r2,r2,65535
    5734:	10000926 	beq	r2,zero,575c <altera_avalon_jtag_uart_write+0x74>
    5738:	e0fffa17 	ldw	r3,-24(fp)
    573c:	e0bffd17 	ldw	r2,-12(fp)
    5740:	11000044 	addi	r4,r2,1
    5744:	e13ffd15 	stw	r4,-12(fp)
    5748:	10800003 	ldbu	r2,0(r2)
    574c:	10803fcc 	andi	r2,r2,255
    5750:	1080201c 	xori	r2,r2,128
    5754:	10bfe004 	addi	r2,r2,-128
    5758:	18800035 	stwio	r2,0(r3)
    575c:	e0fffd17 	ldw	r3,-12(fp)
    5760:	e0bffb17 	ldw	r2,-20(fp)
    5764:	18bfef36 	bltu	r3,r2,5724 <_gp+0xffff67bc>
    5768:	e0bffe17 	ldw	r2,-8(fp)
    576c:	e037883a 	mov	sp,fp
    5770:	df000017 	ldw	fp,0(sp)
    5774:	dec00104 	addi	sp,sp,4
    5778:	f800283a 	ret

0000577c <alt_avalon_timer_sc_irq>:
    577c:	defffa04 	addi	sp,sp,-24
    5780:	dfc00515 	stw	ra,20(sp)
    5784:	df000415 	stw	fp,16(sp)
    5788:	df000404 	addi	fp,sp,16
    578c:	e13fff15 	stw	r4,-4(fp)
    5790:	0007883a 	mov	r3,zero
    5794:	e0bfff17 	ldw	r2,-4(fp)
    5798:	10c00035 	stwio	r3,0(r2)
    579c:	e0bfff17 	ldw	r2,-4(fp)
    57a0:	10800104 	addi	r2,r2,4
    57a4:	10800037 	ldwio	r2,0(r2)
    57a8:	0005303a 	rdctl	r2,status
    57ac:	e0bffd15 	stw	r2,-12(fp)
    57b0:	e0fffd17 	ldw	r3,-12(fp)
    57b4:	00bfff84 	movi	r2,-2
    57b8:	1884703a 	and	r2,r3,r2
    57bc:	1001703a 	wrctl	status,r2
    57c0:	e0bffd17 	ldw	r2,-12(fp)
    57c4:	e0bffc15 	stw	r2,-16(fp)
    57c8:	00062f80 	call	62f8 <alt_tick>
    57cc:	e0bffc17 	ldw	r2,-16(fp)
    57d0:	e0bffe15 	stw	r2,-8(fp)
    57d4:	e0bffe17 	ldw	r2,-8(fp)
    57d8:	1001703a 	wrctl	status,r2
    57dc:	0001883a 	nop
    57e0:	e037883a 	mov	sp,fp
    57e4:	dfc00117 	ldw	ra,4(sp)
    57e8:	df000017 	ldw	fp,0(sp)
    57ec:	dec00204 	addi	sp,sp,8
    57f0:	f800283a 	ret

000057f4 <alt_avalon_timer_sc_init>:
    57f4:	defff804 	addi	sp,sp,-32
    57f8:	dfc00715 	stw	ra,28(sp)
    57fc:	df000615 	stw	fp,24(sp)
    5800:	df000604 	addi	fp,sp,24
    5804:	e13ffc15 	stw	r4,-16(fp)
    5808:	e17ffd15 	stw	r5,-12(fp)
    580c:	e1bffe15 	stw	r6,-8(fp)
    5810:	e1ffff15 	stw	r7,-4(fp)
    5814:	e0bfff17 	ldw	r2,-4(fp)
    5818:	e0bffb15 	stw	r2,-20(fp)
    581c:	d0a0df17 	ldw	r2,-31876(gp)
    5820:	1000021e 	bne	r2,zero,582c <alt_avalon_timer_sc_init+0x38>
    5824:	e0bffb17 	ldw	r2,-20(fp)
    5828:	d0a0df15 	stw	r2,-31876(gp)
    582c:	e0bffc17 	ldw	r2,-16(fp)
    5830:	10800104 	addi	r2,r2,4
    5834:	00c001c4 	movi	r3,7
    5838:	10c00035 	stwio	r3,0(r2)
    583c:	d8000015 	stw	zero,0(sp)
    5840:	e1fffc17 	ldw	r7,-16(fp)
    5844:	01800034 	movhi	r6,0
    5848:	3195df04 	addi	r6,r6,22396
    584c:	e17ffe17 	ldw	r5,-8(fp)
    5850:	e13ffd17 	ldw	r4,-12(fp)
    5854:	0005bc40 	call	5bc4 <alt_ic_isr_register>
    5858:	0001883a 	nop
    585c:	e037883a 	mov	sp,fp
    5860:	dfc00117 	ldw	ra,4(sp)
    5864:	df000017 	ldw	fp,0(sp)
    5868:	dec00204 	addi	sp,sp,8
    586c:	f800283a 	ret

00005870 <alt_get_errno>:
    5870:	defffe04 	addi	sp,sp,-8
    5874:	dfc00115 	stw	ra,4(sp)
    5878:	df000015 	stw	fp,0(sp)
    587c:	d839883a 	mov	fp,sp
    5880:	d0a00517 	ldw	r2,-32748(gp)
    5884:	10000326 	beq	r2,zero,5894 <alt_get_errno+0x24>
    5888:	d0a00517 	ldw	r2,-32748(gp)
    588c:	103ee83a 	callr	r2
    5890:	00000106 	br	5898 <alt_get_errno+0x28>
    5894:	d0a0e204 	addi	r2,gp,-31864
    5898:	e037883a 	mov	sp,fp
    589c:	dfc00117 	ldw	ra,4(sp)
    58a0:	df000017 	ldw	fp,0(sp)
    58a4:	dec00204 	addi	sp,sp,8
    58a8:	f800283a 	ret

000058ac <close>:
    58ac:	defffb04 	addi	sp,sp,-20
    58b0:	dfc00415 	stw	ra,16(sp)
    58b4:	df000315 	stw	fp,12(sp)
    58b8:	df000304 	addi	fp,sp,12
    58bc:	e13fff15 	stw	r4,-4(fp)
    58c0:	e0bfff17 	ldw	r2,-4(fp)
    58c4:	10000616 	blt	r2,zero,58e0 <close+0x34>
    58c8:	e0bfff17 	ldw	r2,-4(fp)
    58cc:	10c00324 	muli	r3,r2,12
    58d0:	00800034 	movhi	r2,0
    58d4:	109b4204 	addi	r2,r2,27912
    58d8:	1885883a 	add	r2,r3,r2
    58dc:	00000106 	br	58e4 <close+0x38>
    58e0:	0005883a 	mov	r2,zero
    58e4:	e0bffd15 	stw	r2,-12(fp)
    58e8:	e0bffd17 	ldw	r2,-12(fp)
    58ec:	10001926 	beq	r2,zero,5954 <close+0xa8>
    58f0:	e0bffd17 	ldw	r2,-12(fp)
    58f4:	10800017 	ldw	r2,0(r2)
    58f8:	10800417 	ldw	r2,16(r2)
    58fc:	10000626 	beq	r2,zero,5918 <close+0x6c>
    5900:	e0bffd17 	ldw	r2,-12(fp)
    5904:	10800017 	ldw	r2,0(r2)
    5908:	10800417 	ldw	r2,16(r2)
    590c:	e13ffd17 	ldw	r4,-12(fp)
    5910:	103ee83a 	callr	r2
    5914:	00000106 	br	591c <close+0x70>
    5918:	0005883a 	mov	r2,zero
    591c:	e0bffe15 	stw	r2,-8(fp)
    5920:	e13fff17 	ldw	r4,-4(fp)
    5924:	00061f80 	call	61f8 <alt_release_fd>
    5928:	e0bffe17 	ldw	r2,-8(fp)
    592c:	1000070e 	bge	r2,zero,594c <close+0xa0>
    5930:	00058700 	call	5870 <alt_get_errno>
    5934:	1007883a 	mov	r3,r2
    5938:	e0bffe17 	ldw	r2,-8(fp)
    593c:	0085c83a 	sub	r2,zero,r2
    5940:	18800015 	stw	r2,0(r3)
    5944:	00bfffc4 	movi	r2,-1
    5948:	00000706 	br	5968 <close+0xbc>
    594c:	0005883a 	mov	r2,zero
    5950:	00000506 	br	5968 <close+0xbc>
    5954:	00058700 	call	5870 <alt_get_errno>
    5958:	1007883a 	mov	r3,r2
    595c:	00801444 	movi	r2,81
    5960:	18800015 	stw	r2,0(r3)
    5964:	00bfffc4 	movi	r2,-1
    5968:	e037883a 	mov	sp,fp
    596c:	dfc00117 	ldw	ra,4(sp)
    5970:	df000017 	ldw	fp,0(sp)
    5974:	dec00204 	addi	sp,sp,8
    5978:	f800283a 	ret

0000597c <alt_dcache_flush_all>:
    597c:	defffe04 	addi	sp,sp,-8
    5980:	df000115 	stw	fp,4(sp)
    5984:	df000104 	addi	fp,sp,4
    5988:	e03fff15 	stw	zero,-4(fp)
    598c:	00000506 	br	59a4 <alt_dcache_flush_all+0x28>
    5990:	e0bfff17 	ldw	r2,-4(fp)
    5994:	1000003b 	flushd	0(r2)
    5998:	e0bfff17 	ldw	r2,-4(fp)
    599c:	10800804 	addi	r2,r2,32
    59a0:	e0bfff15 	stw	r2,-4(fp)
    59a4:	e0bfff17 	ldw	r2,-4(fp)
    59a8:	10820030 	cmpltui	r2,r2,2048
    59ac:	103ff81e 	bne	r2,zero,5990 <_gp+0xffff6a28>
    59b0:	0001883a 	nop
    59b4:	e037883a 	mov	sp,fp
    59b8:	df000017 	ldw	fp,0(sp)
    59bc:	dec00104 	addi	sp,sp,4
    59c0:	f800283a 	ret

000059c4 <alt_dev_null_write>:
    59c4:	defffc04 	addi	sp,sp,-16
    59c8:	df000315 	stw	fp,12(sp)
    59cc:	df000304 	addi	fp,sp,12
    59d0:	e13ffd15 	stw	r4,-12(fp)
    59d4:	e17ffe15 	stw	r5,-8(fp)
    59d8:	e1bfff15 	stw	r6,-4(fp)
    59dc:	e0bfff17 	ldw	r2,-4(fp)
    59e0:	e037883a 	mov	sp,fp
    59e4:	df000017 	ldw	fp,0(sp)
    59e8:	dec00104 	addi	sp,sp,4
    59ec:	f800283a 	ret

000059f0 <alt_get_errno>:
    59f0:	defffe04 	addi	sp,sp,-8
    59f4:	dfc00115 	stw	ra,4(sp)
    59f8:	df000015 	stw	fp,0(sp)
    59fc:	d839883a 	mov	fp,sp
    5a00:	d0a00517 	ldw	r2,-32748(gp)
    5a04:	10000326 	beq	r2,zero,5a14 <alt_get_errno+0x24>
    5a08:	d0a00517 	ldw	r2,-32748(gp)
    5a0c:	103ee83a 	callr	r2
    5a10:	00000106 	br	5a18 <alt_get_errno+0x28>
    5a14:	d0a0e204 	addi	r2,gp,-31864
    5a18:	e037883a 	mov	sp,fp
    5a1c:	dfc00117 	ldw	ra,4(sp)
    5a20:	df000017 	ldw	fp,0(sp)
    5a24:	dec00204 	addi	sp,sp,8
    5a28:	f800283a 	ret

00005a2c <alt_dev_llist_insert>:
    5a2c:	defffa04 	addi	sp,sp,-24
    5a30:	dfc00515 	stw	ra,20(sp)
    5a34:	df000415 	stw	fp,16(sp)
    5a38:	df000404 	addi	fp,sp,16
    5a3c:	e13ffe15 	stw	r4,-8(fp)
    5a40:	e17fff15 	stw	r5,-4(fp)
    5a44:	e0bffe17 	ldw	r2,-8(fp)
    5a48:	10000326 	beq	r2,zero,5a58 <alt_dev_llist_insert+0x2c>
    5a4c:	e0bffe17 	ldw	r2,-8(fp)
    5a50:	10800217 	ldw	r2,8(r2)
    5a54:	1000061e 	bne	r2,zero,5a70 <alt_dev_llist_insert+0x44>
    5a58:	00059f00 	call	59f0 <alt_get_errno>
    5a5c:	1007883a 	mov	r3,r2
    5a60:	00800584 	movi	r2,22
    5a64:	18800015 	stw	r2,0(r3)
    5a68:	00bffa84 	movi	r2,-22
    5a6c:	00001306 	br	5abc <alt_dev_llist_insert+0x90>
    5a70:	e0bffe17 	ldw	r2,-8(fp)
    5a74:	e0ffff17 	ldw	r3,-4(fp)
    5a78:	e0fffc15 	stw	r3,-16(fp)
    5a7c:	e0bffd15 	stw	r2,-12(fp)
    5a80:	e0bffd17 	ldw	r2,-12(fp)
    5a84:	e0fffc17 	ldw	r3,-16(fp)
    5a88:	10c00115 	stw	r3,4(r2)
    5a8c:	e0bffc17 	ldw	r2,-16(fp)
    5a90:	10c00017 	ldw	r3,0(r2)
    5a94:	e0bffd17 	ldw	r2,-12(fp)
    5a98:	10c00015 	stw	r3,0(r2)
    5a9c:	e0bffc17 	ldw	r2,-16(fp)
    5aa0:	10800017 	ldw	r2,0(r2)
    5aa4:	e0fffd17 	ldw	r3,-12(fp)
    5aa8:	10c00115 	stw	r3,4(r2)
    5aac:	e0bffc17 	ldw	r2,-16(fp)
    5ab0:	e0fffd17 	ldw	r3,-12(fp)
    5ab4:	10c00015 	stw	r3,0(r2)
    5ab8:	0005883a 	mov	r2,zero
    5abc:	e037883a 	mov	sp,fp
    5ac0:	dfc00117 	ldw	ra,4(sp)
    5ac4:	df000017 	ldw	fp,0(sp)
    5ac8:	dec00204 	addi	sp,sp,8
    5acc:	f800283a 	ret

00005ad0 <_do_ctors>:
    5ad0:	defffd04 	addi	sp,sp,-12
    5ad4:	dfc00215 	stw	ra,8(sp)
    5ad8:	df000115 	stw	fp,4(sp)
    5adc:	df000104 	addi	fp,sp,4
    5ae0:	00800034 	movhi	r2,0
    5ae4:	109ac904 	addi	r2,r2,27428
    5ae8:	e0bfff15 	stw	r2,-4(fp)
    5aec:	00000606 	br	5b08 <_do_ctors+0x38>
    5af0:	e0bfff17 	ldw	r2,-4(fp)
    5af4:	10800017 	ldw	r2,0(r2)
    5af8:	103ee83a 	callr	r2
    5afc:	e0bfff17 	ldw	r2,-4(fp)
    5b00:	10bfff04 	addi	r2,r2,-4
    5b04:	e0bfff15 	stw	r2,-4(fp)
    5b08:	e0ffff17 	ldw	r3,-4(fp)
    5b0c:	00800034 	movhi	r2,0
    5b10:	109aca04 	addi	r2,r2,27432
    5b14:	18bff62e 	bgeu	r3,r2,5af0 <_gp+0xffff6b88>
    5b18:	0001883a 	nop
    5b1c:	e037883a 	mov	sp,fp
    5b20:	dfc00117 	ldw	ra,4(sp)
    5b24:	df000017 	ldw	fp,0(sp)
    5b28:	dec00204 	addi	sp,sp,8
    5b2c:	f800283a 	ret

00005b30 <_do_dtors>:
    5b30:	defffd04 	addi	sp,sp,-12
    5b34:	dfc00215 	stw	ra,8(sp)
    5b38:	df000115 	stw	fp,4(sp)
    5b3c:	df000104 	addi	fp,sp,4
    5b40:	00800034 	movhi	r2,0
    5b44:	109ac904 	addi	r2,r2,27428
    5b48:	e0bfff15 	stw	r2,-4(fp)
    5b4c:	00000606 	br	5b68 <_do_dtors+0x38>
    5b50:	e0bfff17 	ldw	r2,-4(fp)
    5b54:	10800017 	ldw	r2,0(r2)
    5b58:	103ee83a 	callr	r2
    5b5c:	e0bfff17 	ldw	r2,-4(fp)
    5b60:	10bfff04 	addi	r2,r2,-4
    5b64:	e0bfff15 	stw	r2,-4(fp)
    5b68:	e0ffff17 	ldw	r3,-4(fp)
    5b6c:	00800034 	movhi	r2,0
    5b70:	109aca04 	addi	r2,r2,27432
    5b74:	18bff62e 	bgeu	r3,r2,5b50 <_gp+0xffff6be8>
    5b78:	0001883a 	nop
    5b7c:	e037883a 	mov	sp,fp
    5b80:	dfc00117 	ldw	ra,4(sp)
    5b84:	df000017 	ldw	fp,0(sp)
    5b88:	dec00204 	addi	sp,sp,8
    5b8c:	f800283a 	ret

00005b90 <alt_icache_flush_all>:
    5b90:	defffe04 	addi	sp,sp,-8
    5b94:	dfc00115 	stw	ra,4(sp)
    5b98:	df000015 	stw	fp,0(sp)
    5b9c:	d839883a 	mov	fp,sp
    5ba0:	01440004 	movi	r5,4096
    5ba4:	0009883a 	mov	r4,zero
    5ba8:	00066600 	call	6660 <alt_icache_flush>
    5bac:	0001883a 	nop
    5bb0:	e037883a 	mov	sp,fp
    5bb4:	dfc00117 	ldw	ra,4(sp)
    5bb8:	df000017 	ldw	fp,0(sp)
    5bbc:	dec00204 	addi	sp,sp,8
    5bc0:	f800283a 	ret

00005bc4 <alt_ic_isr_register>:
    5bc4:	defff904 	addi	sp,sp,-28
    5bc8:	dfc00615 	stw	ra,24(sp)
    5bcc:	df000515 	stw	fp,20(sp)
    5bd0:	df000504 	addi	fp,sp,20
    5bd4:	e13ffc15 	stw	r4,-16(fp)
    5bd8:	e17ffd15 	stw	r5,-12(fp)
    5bdc:	e1bffe15 	stw	r6,-8(fp)
    5be0:	e1ffff15 	stw	r7,-4(fp)
    5be4:	e0800217 	ldw	r2,8(fp)
    5be8:	d8800015 	stw	r2,0(sp)
    5bec:	e1ffff17 	ldw	r7,-4(fp)
    5bf0:	e1bffe17 	ldw	r6,-8(fp)
    5bf4:	e17ffd17 	ldw	r5,-12(fp)
    5bf8:	e13ffc17 	ldw	r4,-16(fp)
    5bfc:	0005d740 	call	5d74 <alt_iic_isr_register>
    5c00:	e037883a 	mov	sp,fp
    5c04:	dfc00117 	ldw	ra,4(sp)
    5c08:	df000017 	ldw	fp,0(sp)
    5c0c:	dec00204 	addi	sp,sp,8
    5c10:	f800283a 	ret

00005c14 <alt_ic_irq_enable>:
    5c14:	defff904 	addi	sp,sp,-28
    5c18:	df000615 	stw	fp,24(sp)
    5c1c:	df000604 	addi	fp,sp,24
    5c20:	e13ffe15 	stw	r4,-8(fp)
    5c24:	e17fff15 	stw	r5,-4(fp)
    5c28:	e0bfff17 	ldw	r2,-4(fp)
    5c2c:	e0bffa15 	stw	r2,-24(fp)
    5c30:	0005303a 	rdctl	r2,status
    5c34:	e0bffb15 	stw	r2,-20(fp)
    5c38:	e0fffb17 	ldw	r3,-20(fp)
    5c3c:	00bfff84 	movi	r2,-2
    5c40:	1884703a 	and	r2,r3,r2
    5c44:	1001703a 	wrctl	status,r2
    5c48:	e0bffb17 	ldw	r2,-20(fp)
    5c4c:	e0bffc15 	stw	r2,-16(fp)
    5c50:	00c00044 	movi	r3,1
    5c54:	e0bffa17 	ldw	r2,-24(fp)
    5c58:	1884983a 	sll	r2,r3,r2
    5c5c:	1007883a 	mov	r3,r2
    5c60:	d0a0de17 	ldw	r2,-31880(gp)
    5c64:	1884b03a 	or	r2,r3,r2
    5c68:	d0a0de15 	stw	r2,-31880(gp)
    5c6c:	d0a0de17 	ldw	r2,-31880(gp)
    5c70:	100170fa 	wrctl	ienable,r2
    5c74:	e0bffc17 	ldw	r2,-16(fp)
    5c78:	e0bffd15 	stw	r2,-12(fp)
    5c7c:	e0bffd17 	ldw	r2,-12(fp)
    5c80:	1001703a 	wrctl	status,r2
    5c84:	0005883a 	mov	r2,zero
    5c88:	0001883a 	nop
    5c8c:	e037883a 	mov	sp,fp
    5c90:	df000017 	ldw	fp,0(sp)
    5c94:	dec00104 	addi	sp,sp,4
    5c98:	f800283a 	ret

00005c9c <alt_ic_irq_disable>:
    5c9c:	defff904 	addi	sp,sp,-28
    5ca0:	df000615 	stw	fp,24(sp)
    5ca4:	df000604 	addi	fp,sp,24
    5ca8:	e13ffe15 	stw	r4,-8(fp)
    5cac:	e17fff15 	stw	r5,-4(fp)
    5cb0:	e0bfff17 	ldw	r2,-4(fp)
    5cb4:	e0bffa15 	stw	r2,-24(fp)
    5cb8:	0005303a 	rdctl	r2,status
    5cbc:	e0bffb15 	stw	r2,-20(fp)
    5cc0:	e0fffb17 	ldw	r3,-20(fp)
    5cc4:	00bfff84 	movi	r2,-2
    5cc8:	1884703a 	and	r2,r3,r2
    5ccc:	1001703a 	wrctl	status,r2
    5cd0:	e0bffb17 	ldw	r2,-20(fp)
    5cd4:	e0bffc15 	stw	r2,-16(fp)
    5cd8:	00c00044 	movi	r3,1
    5cdc:	e0bffa17 	ldw	r2,-24(fp)
    5ce0:	1884983a 	sll	r2,r3,r2
    5ce4:	0084303a 	nor	r2,zero,r2
    5ce8:	1007883a 	mov	r3,r2
    5cec:	d0a0de17 	ldw	r2,-31880(gp)
    5cf0:	1884703a 	and	r2,r3,r2
    5cf4:	d0a0de15 	stw	r2,-31880(gp)
    5cf8:	d0a0de17 	ldw	r2,-31880(gp)
    5cfc:	100170fa 	wrctl	ienable,r2
    5d00:	e0bffc17 	ldw	r2,-16(fp)
    5d04:	e0bffd15 	stw	r2,-12(fp)
    5d08:	e0bffd17 	ldw	r2,-12(fp)
    5d0c:	1001703a 	wrctl	status,r2
    5d10:	0005883a 	mov	r2,zero
    5d14:	0001883a 	nop
    5d18:	e037883a 	mov	sp,fp
    5d1c:	df000017 	ldw	fp,0(sp)
    5d20:	dec00104 	addi	sp,sp,4
    5d24:	f800283a 	ret

00005d28 <alt_ic_irq_enabled>:
    5d28:	defffc04 	addi	sp,sp,-16
    5d2c:	df000315 	stw	fp,12(sp)
    5d30:	df000304 	addi	fp,sp,12
    5d34:	e13ffe15 	stw	r4,-8(fp)
    5d38:	e17fff15 	stw	r5,-4(fp)
    5d3c:	000530fa 	rdctl	r2,ienable
    5d40:	e0bffd15 	stw	r2,-12(fp)
    5d44:	00c00044 	movi	r3,1
    5d48:	e0bfff17 	ldw	r2,-4(fp)
    5d4c:	1884983a 	sll	r2,r3,r2
    5d50:	1007883a 	mov	r3,r2
    5d54:	e0bffd17 	ldw	r2,-12(fp)
    5d58:	1884703a 	and	r2,r3,r2
    5d5c:	1004c03a 	cmpne	r2,r2,zero
    5d60:	10803fcc 	andi	r2,r2,255
    5d64:	e037883a 	mov	sp,fp
    5d68:	df000017 	ldw	fp,0(sp)
    5d6c:	dec00104 	addi	sp,sp,4
    5d70:	f800283a 	ret

00005d74 <alt_iic_isr_register>:
    5d74:	defff504 	addi	sp,sp,-44
    5d78:	dfc00a15 	stw	ra,40(sp)
    5d7c:	df000915 	stw	fp,36(sp)
    5d80:	df000904 	addi	fp,sp,36
    5d84:	e13ffc15 	stw	r4,-16(fp)
    5d88:	e17ffd15 	stw	r5,-12(fp)
    5d8c:	e1bffe15 	stw	r6,-8(fp)
    5d90:	e1ffff15 	stw	r7,-4(fp)
    5d94:	00bffa84 	movi	r2,-22
    5d98:	e0bff715 	stw	r2,-36(fp)
    5d9c:	e0bffd17 	ldw	r2,-12(fp)
    5da0:	e0bff815 	stw	r2,-32(fp)
    5da4:	e0bff817 	ldw	r2,-32(fp)
    5da8:	10800808 	cmpgei	r2,r2,32
    5dac:	1000271e 	bne	r2,zero,5e4c <alt_iic_isr_register+0xd8>
    5db0:	0005303a 	rdctl	r2,status
    5db4:	e0bffb15 	stw	r2,-20(fp)
    5db8:	e0fffb17 	ldw	r3,-20(fp)
    5dbc:	00bfff84 	movi	r2,-2
    5dc0:	1884703a 	and	r2,r3,r2
    5dc4:	1001703a 	wrctl	status,r2
    5dc8:	e0bffb17 	ldw	r2,-20(fp)
    5dcc:	e0bffa15 	stw	r2,-24(fp)
    5dd0:	00800034 	movhi	r2,0
    5dd4:	109cbd04 	addi	r2,r2,29428
    5dd8:	e0fff817 	ldw	r3,-32(fp)
    5ddc:	180690fa 	slli	r3,r3,3
    5de0:	10c5883a 	add	r2,r2,r3
    5de4:	e0fffe17 	ldw	r3,-8(fp)
    5de8:	10c00015 	stw	r3,0(r2)
    5dec:	00800034 	movhi	r2,0
    5df0:	109cbd04 	addi	r2,r2,29428
    5df4:	e0fff817 	ldw	r3,-32(fp)
    5df8:	180690fa 	slli	r3,r3,3
    5dfc:	10c5883a 	add	r2,r2,r3
    5e00:	10800104 	addi	r2,r2,4
    5e04:	e0ffff17 	ldw	r3,-4(fp)
    5e08:	10c00015 	stw	r3,0(r2)
    5e0c:	e0bffe17 	ldw	r2,-8(fp)
    5e10:	10000526 	beq	r2,zero,5e28 <alt_iic_isr_register+0xb4>
    5e14:	e0bff817 	ldw	r2,-32(fp)
    5e18:	100b883a 	mov	r5,r2
    5e1c:	e13ffc17 	ldw	r4,-16(fp)
    5e20:	0005c140 	call	5c14 <alt_ic_irq_enable>
    5e24:	00000406 	br	5e38 <alt_iic_isr_register+0xc4>
    5e28:	e0bff817 	ldw	r2,-32(fp)
    5e2c:	100b883a 	mov	r5,r2
    5e30:	e13ffc17 	ldw	r4,-16(fp)
    5e34:	0005c9c0 	call	5c9c <alt_ic_irq_disable>
    5e38:	e0bff715 	stw	r2,-36(fp)
    5e3c:	e0bffa17 	ldw	r2,-24(fp)
    5e40:	e0bff915 	stw	r2,-28(fp)
    5e44:	e0bff917 	ldw	r2,-28(fp)
    5e48:	1001703a 	wrctl	status,r2
    5e4c:	e0bff717 	ldw	r2,-36(fp)
    5e50:	e037883a 	mov	sp,fp
    5e54:	dfc00117 	ldw	ra,4(sp)
    5e58:	df000017 	ldw	fp,0(sp)
    5e5c:	dec00204 	addi	sp,sp,8
    5e60:	f800283a 	ret

00005e64 <alt_open_fd>:
    5e64:	defff904 	addi	sp,sp,-28
    5e68:	dfc00615 	stw	ra,24(sp)
    5e6c:	df000515 	stw	fp,20(sp)
    5e70:	df000504 	addi	fp,sp,20
    5e74:	e13ffc15 	stw	r4,-16(fp)
    5e78:	e17ffd15 	stw	r5,-12(fp)
    5e7c:	e1bffe15 	stw	r6,-8(fp)
    5e80:	e1ffff15 	stw	r7,-4(fp)
    5e84:	e1bfff17 	ldw	r6,-4(fp)
    5e88:	e17ffe17 	ldw	r5,-8(fp)
    5e8c:	e13ffd17 	ldw	r4,-12(fp)
    5e90:	00060a40 	call	60a4 <open>
    5e94:	e0bffb15 	stw	r2,-20(fp)
    5e98:	e0bffb17 	ldw	r2,-20(fp)
    5e9c:	10001c16 	blt	r2,zero,5f10 <alt_open_fd+0xac>
    5ea0:	00800034 	movhi	r2,0
    5ea4:	109b4204 	addi	r2,r2,27912
    5ea8:	e0fffb17 	ldw	r3,-20(fp)
    5eac:	18c00324 	muli	r3,r3,12
    5eb0:	10c5883a 	add	r2,r2,r3
    5eb4:	10c00017 	ldw	r3,0(r2)
    5eb8:	e0bffc17 	ldw	r2,-16(fp)
    5ebc:	10c00015 	stw	r3,0(r2)
    5ec0:	00800034 	movhi	r2,0
    5ec4:	109b4204 	addi	r2,r2,27912
    5ec8:	e0fffb17 	ldw	r3,-20(fp)
    5ecc:	18c00324 	muli	r3,r3,12
    5ed0:	10c5883a 	add	r2,r2,r3
    5ed4:	10800104 	addi	r2,r2,4
    5ed8:	10c00017 	ldw	r3,0(r2)
    5edc:	e0bffc17 	ldw	r2,-16(fp)
    5ee0:	10c00115 	stw	r3,4(r2)
    5ee4:	00800034 	movhi	r2,0
    5ee8:	109b4204 	addi	r2,r2,27912
    5eec:	e0fffb17 	ldw	r3,-20(fp)
    5ef0:	18c00324 	muli	r3,r3,12
    5ef4:	10c5883a 	add	r2,r2,r3
    5ef8:	10800204 	addi	r2,r2,8
    5efc:	10c00017 	ldw	r3,0(r2)
    5f00:	e0bffc17 	ldw	r2,-16(fp)
    5f04:	10c00215 	stw	r3,8(r2)
    5f08:	e13ffb17 	ldw	r4,-20(fp)
    5f0c:	00061f80 	call	61f8 <alt_release_fd>
    5f10:	0001883a 	nop
    5f14:	e037883a 	mov	sp,fp
    5f18:	dfc00117 	ldw	ra,4(sp)
    5f1c:	df000017 	ldw	fp,0(sp)
    5f20:	dec00204 	addi	sp,sp,8
    5f24:	f800283a 	ret

00005f28 <alt_io_redirect>:
    5f28:	defffb04 	addi	sp,sp,-20
    5f2c:	dfc00415 	stw	ra,16(sp)
    5f30:	df000315 	stw	fp,12(sp)
    5f34:	df000304 	addi	fp,sp,12
    5f38:	e13ffd15 	stw	r4,-12(fp)
    5f3c:	e17ffe15 	stw	r5,-8(fp)
    5f40:	e1bfff15 	stw	r6,-4(fp)
    5f44:	01c07fc4 	movi	r7,511
    5f48:	01800044 	movi	r6,1
    5f4c:	e17ffd17 	ldw	r5,-12(fp)
    5f50:	01000034 	movhi	r4,0
    5f54:	211b4504 	addi	r4,r4,27924
    5f58:	0005e640 	call	5e64 <alt_open_fd>
    5f5c:	01c07fc4 	movi	r7,511
    5f60:	000d883a 	mov	r6,zero
    5f64:	e17ffe17 	ldw	r5,-8(fp)
    5f68:	01000034 	movhi	r4,0
    5f6c:	211b4204 	addi	r4,r4,27912
    5f70:	0005e640 	call	5e64 <alt_open_fd>
    5f74:	01c07fc4 	movi	r7,511
    5f78:	01800044 	movi	r6,1
    5f7c:	e17fff17 	ldw	r5,-4(fp)
    5f80:	01000034 	movhi	r4,0
    5f84:	211b4804 	addi	r4,r4,27936
    5f88:	0005e640 	call	5e64 <alt_open_fd>
    5f8c:	0001883a 	nop
    5f90:	e037883a 	mov	sp,fp
    5f94:	dfc00117 	ldw	ra,4(sp)
    5f98:	df000017 	ldw	fp,0(sp)
    5f9c:	dec00204 	addi	sp,sp,8
    5fa0:	f800283a 	ret

00005fa4 <alt_get_errno>:
    5fa4:	defffe04 	addi	sp,sp,-8
    5fa8:	dfc00115 	stw	ra,4(sp)
    5fac:	df000015 	stw	fp,0(sp)
    5fb0:	d839883a 	mov	fp,sp
    5fb4:	d0a00517 	ldw	r2,-32748(gp)
    5fb8:	10000326 	beq	r2,zero,5fc8 <alt_get_errno+0x24>
    5fbc:	d0a00517 	ldw	r2,-32748(gp)
    5fc0:	103ee83a 	callr	r2
    5fc4:	00000106 	br	5fcc <alt_get_errno+0x28>
    5fc8:	d0a0e204 	addi	r2,gp,-31864
    5fcc:	e037883a 	mov	sp,fp
    5fd0:	dfc00117 	ldw	ra,4(sp)
    5fd4:	df000017 	ldw	fp,0(sp)
    5fd8:	dec00204 	addi	sp,sp,8
    5fdc:	f800283a 	ret

00005fe0 <alt_file_locked>:
    5fe0:	defffd04 	addi	sp,sp,-12
    5fe4:	df000215 	stw	fp,8(sp)
    5fe8:	df000204 	addi	fp,sp,8
    5fec:	e13fff15 	stw	r4,-4(fp)
    5ff0:	e0bfff17 	ldw	r2,-4(fp)
    5ff4:	10800217 	ldw	r2,8(r2)
    5ff8:	10d00034 	orhi	r3,r2,16384
    5ffc:	e0bfff17 	ldw	r2,-4(fp)
    6000:	10c00215 	stw	r3,8(r2)
    6004:	e03ffe15 	stw	zero,-8(fp)
    6008:	00001d06 	br	6080 <alt_file_locked+0xa0>
    600c:	00800034 	movhi	r2,0
    6010:	109b4204 	addi	r2,r2,27912
    6014:	e0fffe17 	ldw	r3,-8(fp)
    6018:	18c00324 	muli	r3,r3,12
    601c:	10c5883a 	add	r2,r2,r3
    6020:	10c00017 	ldw	r3,0(r2)
    6024:	e0bfff17 	ldw	r2,-4(fp)
    6028:	10800017 	ldw	r2,0(r2)
    602c:	1880111e 	bne	r3,r2,6074 <alt_file_locked+0x94>
    6030:	00800034 	movhi	r2,0
    6034:	109b4204 	addi	r2,r2,27912
    6038:	e0fffe17 	ldw	r3,-8(fp)
    603c:	18c00324 	muli	r3,r3,12
    6040:	10c5883a 	add	r2,r2,r3
    6044:	10800204 	addi	r2,r2,8
    6048:	10800017 	ldw	r2,0(r2)
    604c:	1000090e 	bge	r2,zero,6074 <alt_file_locked+0x94>
    6050:	e0bffe17 	ldw	r2,-8(fp)
    6054:	10c00324 	muli	r3,r2,12
    6058:	00800034 	movhi	r2,0
    605c:	109b4204 	addi	r2,r2,27912
    6060:	1887883a 	add	r3,r3,r2
    6064:	e0bfff17 	ldw	r2,-4(fp)
    6068:	18800226 	beq	r3,r2,6074 <alt_file_locked+0x94>
    606c:	00bffcc4 	movi	r2,-13
    6070:	00000806 	br	6094 <alt_file_locked+0xb4>
    6074:	e0bffe17 	ldw	r2,-8(fp)
    6078:	10800044 	addi	r2,r2,1
    607c:	e0bffe15 	stw	r2,-8(fp)
    6080:	d0a00417 	ldw	r2,-32752(gp)
    6084:	1007883a 	mov	r3,r2
    6088:	e0bffe17 	ldw	r2,-8(fp)
    608c:	18bfdf2e 	bgeu	r3,r2,600c <_gp+0xffff70a4>
    6090:	0005883a 	mov	r2,zero
    6094:	e037883a 	mov	sp,fp
    6098:	df000017 	ldw	fp,0(sp)
    609c:	dec00104 	addi	sp,sp,4
    60a0:	f800283a 	ret

000060a4 <open>:
    60a4:	defff604 	addi	sp,sp,-40
    60a8:	dfc00915 	stw	ra,36(sp)
    60ac:	df000815 	stw	fp,32(sp)
    60b0:	df000804 	addi	fp,sp,32
    60b4:	e13ffd15 	stw	r4,-12(fp)
    60b8:	e17ffe15 	stw	r5,-8(fp)
    60bc:	e1bfff15 	stw	r6,-4(fp)
    60c0:	00bfffc4 	movi	r2,-1
    60c4:	e0bff915 	stw	r2,-28(fp)
    60c8:	00bffb44 	movi	r2,-19
    60cc:	e0bffa15 	stw	r2,-24(fp)
    60d0:	e03ffb15 	stw	zero,-20(fp)
    60d4:	d1600204 	addi	r5,gp,-32760
    60d8:	e13ffd17 	ldw	r4,-12(fp)
    60dc:	00064240 	call	6424 <alt_find_dev>
    60e0:	e0bff815 	stw	r2,-32(fp)
    60e4:	e0bff817 	ldw	r2,-32(fp)
    60e8:	1000051e 	bne	r2,zero,6100 <open+0x5c>
    60ec:	e13ffd17 	ldw	r4,-12(fp)
    60f0:	00064b40 	call	64b4 <alt_find_file>
    60f4:	e0bff815 	stw	r2,-32(fp)
    60f8:	00800044 	movi	r2,1
    60fc:	e0bffb15 	stw	r2,-20(fp)
    6100:	e0bff817 	ldw	r2,-32(fp)
    6104:	10002926 	beq	r2,zero,61ac <open+0x108>
    6108:	e13ff817 	ldw	r4,-32(fp)
    610c:	00065bc0 	call	65bc <alt_get_fd>
    6110:	e0bff915 	stw	r2,-28(fp)
    6114:	e0bff917 	ldw	r2,-28(fp)
    6118:	1000030e 	bge	r2,zero,6128 <open+0x84>
    611c:	e0bff917 	ldw	r2,-28(fp)
    6120:	e0bffa15 	stw	r2,-24(fp)
    6124:	00002306 	br	61b4 <open+0x110>
    6128:	e0bff917 	ldw	r2,-28(fp)
    612c:	10c00324 	muli	r3,r2,12
    6130:	00800034 	movhi	r2,0
    6134:	109b4204 	addi	r2,r2,27912
    6138:	1885883a 	add	r2,r3,r2
    613c:	e0bffc15 	stw	r2,-16(fp)
    6140:	e0fffe17 	ldw	r3,-8(fp)
    6144:	00900034 	movhi	r2,16384
    6148:	10bfffc4 	addi	r2,r2,-1
    614c:	1886703a 	and	r3,r3,r2
    6150:	e0bffc17 	ldw	r2,-16(fp)
    6154:	10c00215 	stw	r3,8(r2)
    6158:	e0bffb17 	ldw	r2,-20(fp)
    615c:	1000051e 	bne	r2,zero,6174 <open+0xd0>
    6160:	e13ffc17 	ldw	r4,-16(fp)
    6164:	0005fe00 	call	5fe0 <alt_file_locked>
    6168:	e0bffa15 	stw	r2,-24(fp)
    616c:	e0bffa17 	ldw	r2,-24(fp)
    6170:	10001016 	blt	r2,zero,61b4 <open+0x110>
    6174:	e0bff817 	ldw	r2,-32(fp)
    6178:	10800317 	ldw	r2,12(r2)
    617c:	10000826 	beq	r2,zero,61a0 <open+0xfc>
    6180:	e0bff817 	ldw	r2,-32(fp)
    6184:	10800317 	ldw	r2,12(r2)
    6188:	e1ffff17 	ldw	r7,-4(fp)
    618c:	e1bffe17 	ldw	r6,-8(fp)
    6190:	e17ffd17 	ldw	r5,-12(fp)
    6194:	e13ffc17 	ldw	r4,-16(fp)
    6198:	103ee83a 	callr	r2
    619c:	00000106 	br	61a4 <open+0x100>
    61a0:	0005883a 	mov	r2,zero
    61a4:	e0bffa15 	stw	r2,-24(fp)
    61a8:	00000206 	br	61b4 <open+0x110>
    61ac:	00bffb44 	movi	r2,-19
    61b0:	e0bffa15 	stw	r2,-24(fp)
    61b4:	e0bffa17 	ldw	r2,-24(fp)
    61b8:	1000090e 	bge	r2,zero,61e0 <open+0x13c>
    61bc:	e13ff917 	ldw	r4,-28(fp)
    61c0:	00061f80 	call	61f8 <alt_release_fd>
    61c4:	0005fa40 	call	5fa4 <alt_get_errno>
    61c8:	1007883a 	mov	r3,r2
    61cc:	e0bffa17 	ldw	r2,-24(fp)
    61d0:	0085c83a 	sub	r2,zero,r2
    61d4:	18800015 	stw	r2,0(r3)
    61d8:	00bfffc4 	movi	r2,-1
    61dc:	00000106 	br	61e4 <open+0x140>
    61e0:	e0bff917 	ldw	r2,-28(fp)
    61e4:	e037883a 	mov	sp,fp
    61e8:	dfc00117 	ldw	ra,4(sp)
    61ec:	df000017 	ldw	fp,0(sp)
    61f0:	dec00204 	addi	sp,sp,8
    61f4:	f800283a 	ret

000061f8 <alt_release_fd>:
    61f8:	defffe04 	addi	sp,sp,-8
    61fc:	df000115 	stw	fp,4(sp)
    6200:	df000104 	addi	fp,sp,4
    6204:	e13fff15 	stw	r4,-4(fp)
    6208:	e0bfff17 	ldw	r2,-4(fp)
    620c:	108000d0 	cmplti	r2,r2,3
    6210:	10000d1e 	bne	r2,zero,6248 <alt_release_fd+0x50>
    6214:	00800034 	movhi	r2,0
    6218:	109b4204 	addi	r2,r2,27912
    621c:	e0ffff17 	ldw	r3,-4(fp)
    6220:	18c00324 	muli	r3,r3,12
    6224:	10c5883a 	add	r2,r2,r3
    6228:	10800204 	addi	r2,r2,8
    622c:	10000015 	stw	zero,0(r2)
    6230:	00800034 	movhi	r2,0
    6234:	109b4204 	addi	r2,r2,27912
    6238:	e0ffff17 	ldw	r3,-4(fp)
    623c:	18c00324 	muli	r3,r3,12
    6240:	10c5883a 	add	r2,r2,r3
    6244:	10000015 	stw	zero,0(r2)
    6248:	0001883a 	nop
    624c:	e037883a 	mov	sp,fp
    6250:	df000017 	ldw	fp,0(sp)
    6254:	dec00104 	addi	sp,sp,4
    6258:	f800283a 	ret

0000625c <alt_alarm_stop>:
    625c:	defffa04 	addi	sp,sp,-24
    6260:	df000515 	stw	fp,20(sp)
    6264:	df000504 	addi	fp,sp,20
    6268:	e13fff15 	stw	r4,-4(fp)
    626c:	0005303a 	rdctl	r2,status
    6270:	e0bffc15 	stw	r2,-16(fp)
    6274:	e0fffc17 	ldw	r3,-16(fp)
    6278:	00bfff84 	movi	r2,-2
    627c:	1884703a 	and	r2,r3,r2
    6280:	1001703a 	wrctl	status,r2
    6284:	e0bffc17 	ldw	r2,-16(fp)
    6288:	e0bffb15 	stw	r2,-20(fp)
    628c:	e0bfff17 	ldw	r2,-4(fp)
    6290:	e0bffd15 	stw	r2,-12(fp)
    6294:	e0bffd17 	ldw	r2,-12(fp)
    6298:	10800017 	ldw	r2,0(r2)
    629c:	e0fffd17 	ldw	r3,-12(fp)
    62a0:	18c00117 	ldw	r3,4(r3)
    62a4:	10c00115 	stw	r3,4(r2)
    62a8:	e0bffd17 	ldw	r2,-12(fp)
    62ac:	10800117 	ldw	r2,4(r2)
    62b0:	e0fffd17 	ldw	r3,-12(fp)
    62b4:	18c00017 	ldw	r3,0(r3)
    62b8:	10c00015 	stw	r3,0(r2)
    62bc:	e0bffd17 	ldw	r2,-12(fp)
    62c0:	e0fffd17 	ldw	r3,-12(fp)
    62c4:	10c00115 	stw	r3,4(r2)
    62c8:	e0bffd17 	ldw	r2,-12(fp)
    62cc:	e0fffd17 	ldw	r3,-12(fp)
    62d0:	10c00015 	stw	r3,0(r2)
    62d4:	e0bffb17 	ldw	r2,-20(fp)
    62d8:	e0bffe15 	stw	r2,-8(fp)
    62dc:	e0bffe17 	ldw	r2,-8(fp)
    62e0:	1001703a 	wrctl	status,r2
    62e4:	0001883a 	nop
    62e8:	e037883a 	mov	sp,fp
    62ec:	df000017 	ldw	fp,0(sp)
    62f0:	dec00104 	addi	sp,sp,4
    62f4:	f800283a 	ret

000062f8 <alt_tick>:
    62f8:	defffb04 	addi	sp,sp,-20
    62fc:	dfc00415 	stw	ra,16(sp)
    6300:	df000315 	stw	fp,12(sp)
    6304:	df000304 	addi	fp,sp,12
    6308:	d0a00717 	ldw	r2,-32740(gp)
    630c:	e0bffd15 	stw	r2,-12(fp)
    6310:	d0a0e017 	ldw	r2,-31872(gp)
    6314:	10800044 	addi	r2,r2,1
    6318:	d0a0e015 	stw	r2,-31872(gp)
    631c:	00002e06 	br	63d8 <alt_tick+0xe0>
    6320:	e0bffd17 	ldw	r2,-12(fp)
    6324:	10800017 	ldw	r2,0(r2)
    6328:	e0bffe15 	stw	r2,-8(fp)
    632c:	e0bffd17 	ldw	r2,-12(fp)
    6330:	10800403 	ldbu	r2,16(r2)
    6334:	10803fcc 	andi	r2,r2,255
    6338:	10000426 	beq	r2,zero,634c <alt_tick+0x54>
    633c:	d0a0e017 	ldw	r2,-31872(gp)
    6340:	1000021e 	bne	r2,zero,634c <alt_tick+0x54>
    6344:	e0bffd17 	ldw	r2,-12(fp)
    6348:	10000405 	stb	zero,16(r2)
    634c:	e0bffd17 	ldw	r2,-12(fp)
    6350:	10800217 	ldw	r2,8(r2)
    6354:	d0e0e017 	ldw	r3,-31872(gp)
    6358:	18801d36 	bltu	r3,r2,63d0 <alt_tick+0xd8>
    635c:	e0bffd17 	ldw	r2,-12(fp)
    6360:	10800403 	ldbu	r2,16(r2)
    6364:	10803fcc 	andi	r2,r2,255
    6368:	1000191e 	bne	r2,zero,63d0 <alt_tick+0xd8>
    636c:	e0bffd17 	ldw	r2,-12(fp)
    6370:	10800317 	ldw	r2,12(r2)
    6374:	e0fffd17 	ldw	r3,-12(fp)
    6378:	18c00517 	ldw	r3,20(r3)
    637c:	1809883a 	mov	r4,r3
    6380:	103ee83a 	callr	r2
    6384:	e0bfff15 	stw	r2,-4(fp)
    6388:	e0bfff17 	ldw	r2,-4(fp)
    638c:	1000031e 	bne	r2,zero,639c <alt_tick+0xa4>
    6390:	e13ffd17 	ldw	r4,-12(fp)
    6394:	000625c0 	call	625c <alt_alarm_stop>
    6398:	00000d06 	br	63d0 <alt_tick+0xd8>
    639c:	e0bffd17 	ldw	r2,-12(fp)
    63a0:	10c00217 	ldw	r3,8(r2)
    63a4:	e0bfff17 	ldw	r2,-4(fp)
    63a8:	1887883a 	add	r3,r3,r2
    63ac:	e0bffd17 	ldw	r2,-12(fp)
    63b0:	10c00215 	stw	r3,8(r2)
    63b4:	e0bffd17 	ldw	r2,-12(fp)
    63b8:	10c00217 	ldw	r3,8(r2)
    63bc:	d0a0e017 	ldw	r2,-31872(gp)
    63c0:	1880032e 	bgeu	r3,r2,63d0 <alt_tick+0xd8>
    63c4:	e0bffd17 	ldw	r2,-12(fp)
    63c8:	00c00044 	movi	r3,1
    63cc:	10c00405 	stb	r3,16(r2)
    63d0:	e0bffe17 	ldw	r2,-8(fp)
    63d4:	e0bffd15 	stw	r2,-12(fp)
    63d8:	e0fffd17 	ldw	r3,-12(fp)
    63dc:	d0a00704 	addi	r2,gp,-32740
    63e0:	18bfcf1e 	bne	r3,r2,6320 <_gp+0xffff73b8>
    63e4:	0001883a 	nop
    63e8:	0001883a 	nop
    63ec:	e037883a 	mov	sp,fp
    63f0:	dfc00117 	ldw	ra,4(sp)
    63f4:	df000017 	ldw	fp,0(sp)
    63f8:	dec00204 	addi	sp,sp,8
    63fc:	f800283a 	ret

00006400 <altera_nios2_gen2_irq_init>:
    6400:	deffff04 	addi	sp,sp,-4
    6404:	df000015 	stw	fp,0(sp)
    6408:	d839883a 	mov	fp,sp
    640c:	000170fa 	wrctl	ienable,zero
    6410:	0001883a 	nop
    6414:	e037883a 	mov	sp,fp
    6418:	df000017 	ldw	fp,0(sp)
    641c:	dec00104 	addi	sp,sp,4
    6420:	f800283a 	ret

00006424 <alt_find_dev>:
    6424:	defffa04 	addi	sp,sp,-24
    6428:	dfc00515 	stw	ra,20(sp)
    642c:	df000415 	stw	fp,16(sp)
    6430:	df000404 	addi	fp,sp,16
    6434:	e13ffe15 	stw	r4,-8(fp)
    6438:	e17fff15 	stw	r5,-4(fp)
    643c:	e0bfff17 	ldw	r2,-4(fp)
    6440:	10800017 	ldw	r2,0(r2)
    6444:	e0bffc15 	stw	r2,-16(fp)
    6448:	e13ffe17 	ldw	r4,-8(fp)
    644c:	00067f00 	call	67f0 <strlen>
    6450:	10800044 	addi	r2,r2,1
    6454:	e0bffd15 	stw	r2,-12(fp)
    6458:	00000d06 	br	6490 <alt_find_dev+0x6c>
    645c:	e0bffc17 	ldw	r2,-16(fp)
    6460:	10800217 	ldw	r2,8(r2)
    6464:	e0fffd17 	ldw	r3,-12(fp)
    6468:	180d883a 	mov	r6,r3
    646c:	e17ffe17 	ldw	r5,-8(fp)
    6470:	1009883a 	mov	r4,r2
    6474:	00067c00 	call	67c0 <memcmp>
    6478:	1000021e 	bne	r2,zero,6484 <alt_find_dev+0x60>
    647c:	e0bffc17 	ldw	r2,-16(fp)
    6480:	00000706 	br	64a0 <alt_find_dev+0x7c>
    6484:	e0bffc17 	ldw	r2,-16(fp)
    6488:	10800017 	ldw	r2,0(r2)
    648c:	e0bffc15 	stw	r2,-16(fp)
    6490:	e0fffc17 	ldw	r3,-16(fp)
    6494:	e0bfff17 	ldw	r2,-4(fp)
    6498:	18bff01e 	bne	r3,r2,645c <_gp+0xffff74f4>
    649c:	0005883a 	mov	r2,zero
    64a0:	e037883a 	mov	sp,fp
    64a4:	dfc00117 	ldw	ra,4(sp)
    64a8:	df000017 	ldw	fp,0(sp)
    64ac:	dec00204 	addi	sp,sp,8
    64b0:	f800283a 	ret

000064b4 <alt_find_file>:
    64b4:	defffb04 	addi	sp,sp,-20
    64b8:	dfc00415 	stw	ra,16(sp)
    64bc:	df000315 	stw	fp,12(sp)
    64c0:	df000304 	addi	fp,sp,12
    64c4:	e13fff15 	stw	r4,-4(fp)
    64c8:	d0a00017 	ldw	r2,-32768(gp)
    64cc:	e0bffd15 	stw	r2,-12(fp)
    64d0:	00003106 	br	6598 <alt_find_file+0xe4>
    64d4:	e0bffd17 	ldw	r2,-12(fp)
    64d8:	10800217 	ldw	r2,8(r2)
    64dc:	1009883a 	mov	r4,r2
    64e0:	00067f00 	call	67f0 <strlen>
    64e4:	e0bffe15 	stw	r2,-8(fp)
    64e8:	e0bffd17 	ldw	r2,-12(fp)
    64ec:	10c00217 	ldw	r3,8(r2)
    64f0:	e0bffe17 	ldw	r2,-8(fp)
    64f4:	10bfffc4 	addi	r2,r2,-1
    64f8:	1885883a 	add	r2,r3,r2
    64fc:	10800003 	ldbu	r2,0(r2)
    6500:	10803fcc 	andi	r2,r2,255
    6504:	1080201c 	xori	r2,r2,128
    6508:	10bfe004 	addi	r2,r2,-128
    650c:	10800bd8 	cmpnei	r2,r2,47
    6510:	1000031e 	bne	r2,zero,6520 <alt_find_file+0x6c>
    6514:	e0bffe17 	ldw	r2,-8(fp)
    6518:	10bfffc4 	addi	r2,r2,-1
    651c:	e0bffe15 	stw	r2,-8(fp)
    6520:	e0bffe17 	ldw	r2,-8(fp)
    6524:	e0ffff17 	ldw	r3,-4(fp)
    6528:	1885883a 	add	r2,r3,r2
    652c:	10800003 	ldbu	r2,0(r2)
    6530:	10803fcc 	andi	r2,r2,255
    6534:	1080201c 	xori	r2,r2,128
    6538:	10bfe004 	addi	r2,r2,-128
    653c:	10800be0 	cmpeqi	r2,r2,47
    6540:	1000081e 	bne	r2,zero,6564 <alt_find_file+0xb0>
    6544:	e0bffe17 	ldw	r2,-8(fp)
    6548:	e0ffff17 	ldw	r3,-4(fp)
    654c:	1885883a 	add	r2,r3,r2
    6550:	10800003 	ldbu	r2,0(r2)
    6554:	10803fcc 	andi	r2,r2,255
    6558:	1080201c 	xori	r2,r2,128
    655c:	10bfe004 	addi	r2,r2,-128
    6560:	10000a1e 	bne	r2,zero,658c <alt_find_file+0xd8>
    6564:	e0bffd17 	ldw	r2,-12(fp)
    6568:	10800217 	ldw	r2,8(r2)
    656c:	e0fffe17 	ldw	r3,-8(fp)
    6570:	180d883a 	mov	r6,r3
    6574:	e17fff17 	ldw	r5,-4(fp)
    6578:	1009883a 	mov	r4,r2
    657c:	00067c00 	call	67c0 <memcmp>
    6580:	1000021e 	bne	r2,zero,658c <alt_find_file+0xd8>
    6584:	e0bffd17 	ldw	r2,-12(fp)
    6588:	00000706 	br	65a8 <alt_find_file+0xf4>
    658c:	e0bffd17 	ldw	r2,-12(fp)
    6590:	10800017 	ldw	r2,0(r2)
    6594:	e0bffd15 	stw	r2,-12(fp)
    6598:	e0fffd17 	ldw	r3,-12(fp)
    659c:	d0a00004 	addi	r2,gp,-32768
    65a0:	18bfcc1e 	bne	r3,r2,64d4 <_gp+0xffff756c>
    65a4:	0005883a 	mov	r2,zero
    65a8:	e037883a 	mov	sp,fp
    65ac:	dfc00117 	ldw	ra,4(sp)
    65b0:	df000017 	ldw	fp,0(sp)
    65b4:	dec00204 	addi	sp,sp,8
    65b8:	f800283a 	ret

000065bc <alt_get_fd>:
    65bc:	defffc04 	addi	sp,sp,-16
    65c0:	df000315 	stw	fp,12(sp)
    65c4:	df000304 	addi	fp,sp,12
    65c8:	e13fff15 	stw	r4,-4(fp)
    65cc:	00bffa04 	movi	r2,-24
    65d0:	e0bffe15 	stw	r2,-8(fp)
    65d4:	e03ffd15 	stw	zero,-12(fp)
    65d8:	00001906 	br	6640 <alt_get_fd+0x84>
    65dc:	00800034 	movhi	r2,0
    65e0:	109b4204 	addi	r2,r2,27912
    65e4:	e0fffd17 	ldw	r3,-12(fp)
    65e8:	18c00324 	muli	r3,r3,12
    65ec:	10c5883a 	add	r2,r2,r3
    65f0:	10800017 	ldw	r2,0(r2)
    65f4:	10000f1e 	bne	r2,zero,6634 <alt_get_fd+0x78>
    65f8:	00800034 	movhi	r2,0
    65fc:	109b4204 	addi	r2,r2,27912
    6600:	e0fffd17 	ldw	r3,-12(fp)
    6604:	18c00324 	muli	r3,r3,12
    6608:	10c5883a 	add	r2,r2,r3
    660c:	e0ffff17 	ldw	r3,-4(fp)
    6610:	10c00015 	stw	r3,0(r2)
    6614:	d0e00417 	ldw	r3,-32752(gp)
    6618:	e0bffd17 	ldw	r2,-12(fp)
    661c:	1880020e 	bge	r3,r2,6628 <alt_get_fd+0x6c>
    6620:	e0bffd17 	ldw	r2,-12(fp)
    6624:	d0a00415 	stw	r2,-32752(gp)
    6628:	e0bffd17 	ldw	r2,-12(fp)
    662c:	e0bffe15 	stw	r2,-8(fp)
    6630:	00000606 	br	664c <alt_get_fd+0x90>
    6634:	e0bffd17 	ldw	r2,-12(fp)
    6638:	10800044 	addi	r2,r2,1
    663c:	e0bffd15 	stw	r2,-12(fp)
    6640:	e0bffd17 	ldw	r2,-12(fp)
    6644:	10800810 	cmplti	r2,r2,32
    6648:	103fe41e 	bne	r2,zero,65dc <_gp+0xffff7674>
    664c:	e0bffe17 	ldw	r2,-8(fp)
    6650:	e037883a 	mov	sp,fp
    6654:	df000017 	ldw	fp,0(sp)
    6658:	dec00104 	addi	sp,sp,4
    665c:	f800283a 	ret

00006660 <alt_icache_flush>:
    6660:	defffb04 	addi	sp,sp,-20
    6664:	df000415 	stw	fp,16(sp)
    6668:	df000404 	addi	fp,sp,16
    666c:	e13ffe15 	stw	r4,-8(fp)
    6670:	e17fff15 	stw	r5,-4(fp)
    6674:	e0bfff17 	ldw	r2,-4(fp)
    6678:	10840070 	cmpltui	r2,r2,4097
    667c:	1000021e 	bne	r2,zero,6688 <alt_icache_flush+0x28>
    6680:	00840004 	movi	r2,4096
    6684:	e0bfff15 	stw	r2,-4(fp)
    6688:	e0fffe17 	ldw	r3,-8(fp)
    668c:	e0bfff17 	ldw	r2,-4(fp)
    6690:	1885883a 	add	r2,r3,r2
    6694:	e0bffd15 	stw	r2,-12(fp)
    6698:	e0bffe17 	ldw	r2,-8(fp)
    669c:	e0bffc15 	stw	r2,-16(fp)
    66a0:	00000506 	br	66b8 <alt_icache_flush+0x58>
    66a4:	e0bffc17 	ldw	r2,-16(fp)
    66a8:	1000603a 	flushi	r2
    66ac:	e0bffc17 	ldw	r2,-16(fp)
    66b0:	10800804 	addi	r2,r2,32
    66b4:	e0bffc15 	stw	r2,-16(fp)
    66b8:	e0fffc17 	ldw	r3,-16(fp)
    66bc:	e0bffd17 	ldw	r2,-12(fp)
    66c0:	18bff836 	bltu	r3,r2,66a4 <_gp+0xffff773c>
    66c4:	e0bffe17 	ldw	r2,-8(fp)
    66c8:	108007cc 	andi	r2,r2,31
    66cc:	10000226 	beq	r2,zero,66d8 <alt_icache_flush+0x78>
    66d0:	e0bffc17 	ldw	r2,-16(fp)
    66d4:	1000603a 	flushi	r2
    66d8:	0000203a 	flushp
    66dc:	0001883a 	nop
    66e0:	e037883a 	mov	sp,fp
    66e4:	df000017 	ldw	fp,0(sp)
    66e8:	dec00104 	addi	sp,sp,4
    66ec:	f800283a 	ret

000066f0 <alt_exception_cause_generated_bad_addr>:
    66f0:	defffe04 	addi	sp,sp,-8
    66f4:	df000115 	stw	fp,4(sp)
    66f8:	df000104 	addi	fp,sp,4
    66fc:	e13fff15 	stw	r4,-4(fp)
    6700:	e0bfff17 	ldw	r2,-4(fp)
    6704:	10bffe84 	addi	r2,r2,-6
    6708:	10c00428 	cmpgeui	r3,r2,16
    670c:	18001a1e 	bne	r3,zero,6778 <alt_exception_cause_generated_bad_addr+0x88>
    6710:	100690ba 	slli	r3,r2,2
    6714:	00800034 	movhi	r2,0
    6718:	1099ca04 	addi	r2,r2,26408
    671c:	1885883a 	add	r2,r3,r2
    6720:	10800017 	ldw	r2,0(r2)
    6724:	1000683a 	jmp	r2
    6728:	00006768 	cmpgeui	zero,zero,413
    672c:	00006768 	cmpgeui	zero,zero,413
    6730:	00006778 	rdprs	zero,zero,413
    6734:	00006778 	rdprs	zero,zero,413
    6738:	00006778 	rdprs	zero,zero,413
    673c:	00006768 	cmpgeui	zero,zero,413
    6740:	00006770 	cmpltui	zero,zero,413
    6744:	00006778 	rdprs	zero,zero,413
    6748:	00006768 	cmpgeui	zero,zero,413
    674c:	00006768 	cmpgeui	zero,zero,413
    6750:	00006778 	rdprs	zero,zero,413
    6754:	00006768 	cmpgeui	zero,zero,413
    6758:	00006770 	cmpltui	zero,zero,413
    675c:	00006778 	rdprs	zero,zero,413
    6760:	00006778 	rdprs	zero,zero,413
    6764:	00006768 	cmpgeui	zero,zero,413
    6768:	00800044 	movi	r2,1
    676c:	00000306 	br	677c <alt_exception_cause_generated_bad_addr+0x8c>
    6770:	0005883a 	mov	r2,zero
    6774:	00000106 	br	677c <alt_exception_cause_generated_bad_addr+0x8c>
    6778:	0005883a 	mov	r2,zero
    677c:	e037883a 	mov	sp,fp
    6780:	df000017 	ldw	fp,0(sp)
    6784:	dec00104 	addi	sp,sp,4
    6788:	f800283a 	ret

0000678c <atexit>:
    678c:	200b883a 	mov	r5,r4
    6790:	000f883a 	mov	r7,zero
    6794:	000d883a 	mov	r6,zero
    6798:	0009883a 	mov	r4,zero
    679c:	000680c1 	jmpi	680c <__register_exitproc>

000067a0 <exit>:
    67a0:	defffe04 	addi	sp,sp,-8
    67a4:	000b883a 	mov	r5,zero
    67a8:	dc000015 	stw	r16,0(sp)
    67ac:	dfc00115 	stw	ra,4(sp)
    67b0:	2021883a 	mov	r16,r4
    67b4:	00069640 	call	6964 <__call_exitprocs>
    67b8:	8009883a 	mov	r4,r16
    67bc:	0006af40 	call	6af4 <_exit>

000067c0 <memcmp>:
    67c0:	218d883a 	add	r6,r4,r6
    67c4:	21800826 	beq	r4,r6,67e8 <memcmp+0x28>
    67c8:	20800003 	ldbu	r2,0(r4)
    67cc:	28c00003 	ldbu	r3,0(r5)
    67d0:	10c00226 	beq	r2,r3,67dc <memcmp+0x1c>
    67d4:	10c5c83a 	sub	r2,r2,r3
    67d8:	f800283a 	ret
    67dc:	21000044 	addi	r4,r4,1
    67e0:	29400044 	addi	r5,r5,1
    67e4:	003ff706 	br	67c4 <_gp+0xffff785c>
    67e8:	0005883a 	mov	r2,zero
    67ec:	f800283a 	ret

000067f0 <strlen>:
    67f0:	2005883a 	mov	r2,r4
    67f4:	10c00007 	ldb	r3,0(r2)
    67f8:	18000226 	beq	r3,zero,6804 <strlen+0x14>
    67fc:	10800044 	addi	r2,r2,1
    6800:	003ffc06 	br	67f4 <_gp+0xffff788c>
    6804:	1105c83a 	sub	r2,r2,r4
    6808:	f800283a 	ret

0000680c <__register_exitproc>:
    680c:	00800034 	movhi	r2,0
    6810:	109be304 	addi	r2,r2,28556
    6814:	10c00017 	ldw	r3,0(r2)
    6818:	defff904 	addi	sp,sp,-28
    681c:	dc000015 	stw	r16,0(sp)
    6820:	1c000c17 	ldw	r16,48(r3)
    6824:	dd400515 	stw	r21,20(sp)
    6828:	dd000415 	stw	r20,16(sp)
    682c:	dcc00315 	stw	r19,12(sp)
    6830:	dc800215 	stw	r18,8(sp)
    6834:	dc400115 	stw	r17,4(sp)
    6838:	dfc00615 	stw	ra,24(sp)
    683c:	202b883a 	mov	r21,r4
    6840:	2823883a 	mov	r17,r5
    6844:	3027883a 	mov	r19,r6
    6848:	3825883a 	mov	r18,r7
    684c:	1029883a 	mov	r20,r2
    6850:	8000021e 	bne	r16,zero,685c <__register_exitproc+0x50>
    6854:	1c000d04 	addi	r16,r3,52
    6858:	1c000c15 	stw	r16,48(r3)
    685c:	80800117 	ldw	r2,4(r16)
    6860:	00c007c4 	movi	r3,31
    6864:	1880110e 	bge	r3,r2,68ac <__register_exitproc+0xa0>
    6868:	00800034 	movhi	r2,0
    686c:	10800004 	addi	r2,r2,0
    6870:	1000021e 	bne	r2,zero,687c <__register_exitproc+0x70>
    6874:	00bfffc4 	movi	r2,-1
    6878:	00003106 	br	6940 <__register_exitproc+0x134>
    687c:	01002304 	movi	r4,140
    6880:	00000000 	call	0 <__alt_mem_onchip_ram-0x4000>
    6884:	1021883a 	mov	r16,r2
    6888:	103ffa26 	beq	r2,zero,6874 <_gp+0xffff790c>
    688c:	10000115 	stw	zero,4(r2)
    6890:	a0800017 	ldw	r2,0(r20)
    6894:	10c00c17 	ldw	r3,48(r2)
    6898:	80c00015 	stw	r3,0(r16)
    689c:	14000c15 	stw	r16,48(r2)
    68a0:	80002215 	stw	zero,136(r16)
    68a4:	a8001d26 	beq	r21,zero,691c <__register_exitproc+0x110>
    68a8:	00000606 	br	68c4 <__register_exitproc+0xb8>
    68ac:	a8001b26 	beq	r21,zero,691c <__register_exitproc+0x110>
    68b0:	80802217 	ldw	r2,136(r16)
    68b4:	1000091e 	bne	r2,zero,68dc <__register_exitproc+0xd0>
    68b8:	00800034 	movhi	r2,0
    68bc:	10800004 	addi	r2,r2,0
    68c0:	103fec26 	beq	r2,zero,6874 <_gp+0xffff790c>
    68c4:	01004204 	movi	r4,264
    68c8:	00000000 	call	0 <__alt_mem_onchip_ram-0x4000>
    68cc:	103fe926 	beq	r2,zero,6874 <_gp+0xffff790c>
    68d0:	10004015 	stw	zero,256(r2)
    68d4:	10004115 	stw	zero,260(r2)
    68d8:	80802215 	stw	r2,136(r16)
    68dc:	81400117 	ldw	r5,4(r16)
    68e0:	01000044 	movi	r4,1
    68e4:	2947883a 	add	r3,r5,r5
    68e8:	18c7883a 	add	r3,r3,r3
    68ec:	10c7883a 	add	r3,r2,r3
    68f0:	1cc00015 	stw	r19,0(r3)
    68f4:	2148983a 	sll	r4,r4,r5
    68f8:	11404017 	ldw	r5,256(r2)
    68fc:	290ab03a 	or	r5,r5,r4
    6900:	11404015 	stw	r5,256(r2)
    6904:	1c802015 	stw	r18,128(r3)
    6908:	00c00084 	movi	r3,2
    690c:	a8c0031e 	bne	r21,r3,691c <__register_exitproc+0x110>
    6910:	10c04117 	ldw	r3,260(r2)
    6914:	1908b03a 	or	r4,r3,r4
    6918:	11004115 	stw	r4,260(r2)
    691c:	80800117 	ldw	r2,4(r16)
    6920:	10c00044 	addi	r3,r2,1
    6924:	10800084 	addi	r2,r2,2
    6928:	1085883a 	add	r2,r2,r2
    692c:	1085883a 	add	r2,r2,r2
    6930:	80c00115 	stw	r3,4(r16)
    6934:	80a1883a 	add	r16,r16,r2
    6938:	84400015 	stw	r17,0(r16)
    693c:	0005883a 	mov	r2,zero
    6940:	dfc00617 	ldw	ra,24(sp)
    6944:	dd400517 	ldw	r21,20(sp)
    6948:	dd000417 	ldw	r20,16(sp)
    694c:	dcc00317 	ldw	r19,12(sp)
    6950:	dc800217 	ldw	r18,8(sp)
    6954:	dc400117 	ldw	r17,4(sp)
    6958:	dc000017 	ldw	r16,0(sp)
    695c:	dec00704 	addi	sp,sp,28
    6960:	f800283a 	ret

00006964 <__call_exitprocs>:
    6964:	defff504 	addi	sp,sp,-44
    6968:	dd000515 	stw	r20,20(sp)
    696c:	05000034 	movhi	r20,0
    6970:	dc800315 	stw	r18,12(sp)
    6974:	dfc00a15 	stw	ra,40(sp)
    6978:	df000915 	stw	fp,36(sp)
    697c:	ddc00815 	stw	r23,32(sp)
    6980:	dd800715 	stw	r22,28(sp)
    6984:	dd400615 	stw	r21,24(sp)
    6988:	dcc00415 	stw	r19,16(sp)
    698c:	dc400215 	stw	r17,8(sp)
    6990:	dc000115 	stw	r16,4(sp)
    6994:	d9000015 	stw	r4,0(sp)
    6998:	2825883a 	mov	r18,r5
    699c:	a51be304 	addi	r20,r20,28556
    69a0:	a4400017 	ldw	r17,0(r20)
    69a4:	8cc00c17 	ldw	r19,48(r17)
    69a8:	8c400c04 	addi	r17,r17,48
    69ac:	98004526 	beq	r19,zero,6ac4 <__call_exitprocs+0x160>
    69b0:	9c000117 	ldw	r16,4(r19)
    69b4:	00900034 	movhi	r2,16384
    69b8:	10bfffc4 	addi	r2,r2,-1
    69bc:	9d402217 	ldw	r21,136(r19)
    69c0:	85bfffc4 	addi	r22,r16,-1
    69c4:	80a1883a 	add	r16,r16,r2
    69c8:	8421883a 	add	r16,r16,r16
    69cc:	8421883a 	add	r16,r16,r16
    69d0:	ac2f883a 	add	r23,r21,r16
    69d4:	84000204 	addi	r16,r16,8
    69d8:	9c21883a 	add	r16,r19,r16
    69dc:	b0002716 	blt	r22,zero,6a7c <__call_exitprocs+0x118>
    69e0:	90000726 	beq	r18,zero,6a00 <__call_exitprocs+0x9c>
    69e4:	a800041e 	bne	r21,zero,69f8 <__call_exitprocs+0x94>
    69e8:	b5bfffc4 	addi	r22,r22,-1
    69ec:	bdffff04 	addi	r23,r23,-4
    69f0:	843fff04 	addi	r16,r16,-4
    69f4:	003ff906 	br	69dc <_gp+0xffff7a74>
    69f8:	b9002017 	ldw	r4,128(r23)
    69fc:	913ffa1e 	bne	r18,r4,69e8 <_gp+0xffff7a80>
    6a00:	99000117 	ldw	r4,4(r19)
    6a04:	82000017 	ldw	r8,0(r16)
    6a08:	213fffc4 	addi	r4,r4,-1
    6a0c:	b100021e 	bne	r22,r4,6a18 <__call_exitprocs+0xb4>
    6a10:	9d800115 	stw	r22,4(r19)
    6a14:	00000106 	br	6a1c <__call_exitprocs+0xb8>
    6a18:	80000015 	stw	zero,0(r16)
    6a1c:	403ff226 	beq	r8,zero,69e8 <_gp+0xffff7a80>
    6a20:	9f000117 	ldw	fp,4(r19)
    6a24:	a8000526 	beq	r21,zero,6a3c <__call_exitprocs+0xd8>
    6a28:	00800044 	movi	r2,1
    6a2c:	1592983a 	sll	r9,r2,r22
    6a30:	a9404017 	ldw	r5,256(r21)
    6a34:	494a703a 	and	r5,r9,r5
    6a38:	2800021e 	bne	r5,zero,6a44 <__call_exitprocs+0xe0>
    6a3c:	403ee83a 	callr	r8
    6a40:	00000906 	br	6a68 <__call_exitprocs+0x104>
    6a44:	a9004117 	ldw	r4,260(r21)
    6a48:	4908703a 	and	r4,r9,r4
    6a4c:	2000041e 	bne	r4,zero,6a60 <__call_exitprocs+0xfc>
    6a50:	b9400017 	ldw	r5,0(r23)
    6a54:	d9000017 	ldw	r4,0(sp)
    6a58:	403ee83a 	callr	r8
    6a5c:	00000206 	br	6a68 <__call_exitprocs+0x104>
    6a60:	b9000017 	ldw	r4,0(r23)
    6a64:	403ee83a 	callr	r8
    6a68:	99000117 	ldw	r4,4(r19)
    6a6c:	e13fcc1e 	bne	fp,r4,69a0 <_gp+0xffff7a38>
    6a70:	89000017 	ldw	r4,0(r17)
    6a74:	993fdc26 	beq	r19,r4,69e8 <_gp+0xffff7a80>
    6a78:	003fc906 	br	69a0 <_gp+0xffff7a38>
    6a7c:	00800034 	movhi	r2,0
    6a80:	10800004 	addi	r2,r2,0
    6a84:	10000f26 	beq	r2,zero,6ac4 <__call_exitprocs+0x160>
    6a88:	99400117 	ldw	r5,4(r19)
    6a8c:	99000017 	ldw	r4,0(r19)
    6a90:	2800091e 	bne	r5,zero,6ab8 <__call_exitprocs+0x154>
    6a94:	20000826 	beq	r4,zero,6ab8 <__call_exitprocs+0x154>
    6a98:	89000015 	stw	r4,0(r17)
    6a9c:	a8000226 	beq	r21,zero,6aa8 <__call_exitprocs+0x144>
    6aa0:	a809883a 	mov	r4,r21
    6aa4:	00000000 	call	0 <__alt_mem_onchip_ram-0x4000>
    6aa8:	9809883a 	mov	r4,r19
    6aac:	00000000 	call	0 <__alt_mem_onchip_ram-0x4000>
    6ab0:	8cc00017 	ldw	r19,0(r17)
    6ab4:	003fbd06 	br	69ac <_gp+0xffff7a44>
    6ab8:	9823883a 	mov	r17,r19
    6abc:	2027883a 	mov	r19,r4
    6ac0:	003fba06 	br	69ac <_gp+0xffff7a44>
    6ac4:	dfc00a17 	ldw	ra,40(sp)
    6ac8:	df000917 	ldw	fp,36(sp)
    6acc:	ddc00817 	ldw	r23,32(sp)
    6ad0:	dd800717 	ldw	r22,28(sp)
    6ad4:	dd400617 	ldw	r21,24(sp)
    6ad8:	dd000517 	ldw	r20,20(sp)
    6adc:	dcc00417 	ldw	r19,16(sp)
    6ae0:	dc800317 	ldw	r18,12(sp)
    6ae4:	dc400217 	ldw	r17,8(sp)
    6ae8:	dc000117 	ldw	r16,4(sp)
    6aec:	dec00b04 	addi	sp,sp,44
    6af0:	f800283a 	ret

00006af4 <_exit>:
    6af4:	defffd04 	addi	sp,sp,-12
    6af8:	df000215 	stw	fp,8(sp)
    6afc:	df000204 	addi	fp,sp,8
    6b00:	e13fff15 	stw	r4,-4(fp)
    6b04:	0001883a 	nop
    6b08:	e0bfff17 	ldw	r2,-4(fp)
    6b0c:	e0bffe15 	stw	r2,-8(fp)
    6b10:	e0bffe17 	ldw	r2,-8(fp)
    6b14:	10000226 	beq	r2,zero,6b20 <_exit+0x2c>
    6b18:	002af070 	cmpltui	zero,zero,43969
    6b1c:	00000106 	br	6b24 <_exit+0x30>
    6b20:	002af0b0 	cmpltui	zero,zero,43970
    6b24:	003fff06 	br	6b24 <_gp+0xffff7bbc>
